   1              		.syntax unified
   2              		.cpu cortex-m4
   3              		.eabi_attribute 27, 3
   4              		.fpu fpv4-sp-d16
   5              		.eabi_attribute 20, 1
   6              		.eabi_attribute 21, 1
   7              		.eabi_attribute 23, 3
   8              		.eabi_attribute 24, 1
   9              		.eabi_attribute 25, 1
  10              		.eabi_attribute 26, 1
  11              		.eabi_attribute 30, 6
  12              		.eabi_attribute 34, 1
  13              		.eabi_attribute 18, 4
  14              		.thumb
  15              		.file	"BluetoothDriver.c"
  16              		.text
  17              	.Ltext0:
  18              		.cfi_sections	.debug_frame
  19              		.global	initStatus
  20              		.bss
  23              	initStatus:
  24 0000 00       		.space	1
  25              		.global	removeInitTimerRx
  28              	removeInitTimerRx:
  29 0001 00       		.space	1
  30              		.global	removeMainTimerStatus
  33              	removeMainTimerStatus:
  34 0002 00       		.space	1
  35              		.global	removeRxTimerStatus
  38              	removeRxTimerStatus:
  39 0003 00       		.space	1
  40              		.global	canSend
  41              		.data
  44              	canSend:
  45 0000 01       		.byte	1
  46              		.global	mainInitTimerID
  47              		.bss
  48              		.align	2
  51              	mainInitTimerID:
  52 0004 00000000 		.space	4
  53              		.global	mainInitTimerStatus
  54              		.data
  55 0001 000000   		.align	2
  58              	mainInitTimerStatus:
  59 0004 02000000 		.word	2
  60              		.global	HandlTimerReceiveAnsID
  61              		.bss
  62              		.align	2
  65              	HandlTimerReceiveAnsID:
  66 0008 00000000 		.space	4
  67              		.global	StatusReceiveAns
  68              		.data
  69              		.align	2
  72              	StatusReceiveAns:
  73 0008 02000000 		.word	2
  74              		.global	TimerIdRxMessage
  75              		.bss
  76              		.align	2
  79              	TimerIdRxMessage:
  80 000c 00000000 		.space	4
  81              		.global	TimerStatusRxMessage
  82              		.data
  83              		.align	2
  86              	TimerStatusRxMessage:
  87 000c 02000000 		.word	2
  88              		.comm	initCommandsAnswer,960,4
  89              		.global	stageOfConnection
  90              		.bss
  91              		.align	2
  94              	stageOfConnection:
  95 0010 00000000 		.space	4
  96              		.global	stageOfInit
  97              		.align	2
 100              	stageOfInit:
 101 0014 00000000 		.space	4
 102              		.section	.text.resetConnection,"ax",%progbits
 103              		.align	2
 104              		.global	resetConnection
 105              		.thumb
 106              		.thumb_func
 108              	resetConnection:
 109              	.LFB112:
 110              		.file 1 "../BluetoothDriver.c"
   1:../BluetoothDriver.c **** /*
   2:../BluetoothDriver.c ****  * BluetoothDriver.c
   3:../BluetoothDriver.c ****  *
   4:../BluetoothDriver.c ****  *  Created on: 08-02-2016
   5:../BluetoothDriver.c ****  *      Author: Mateusz
   6:../BluetoothDriver.c ****  */
   7:../BluetoothDriver.c **** #include "BluetoothDriver.h"
   8:../BluetoothDriver.c **** #include <string.h>
   9:../BluetoothDriver.c **** 
  10:../BluetoothDriver.c **** #define TRUE 1
  11:../BluetoothDriver.c **** #define FALSE 0
  12:../BluetoothDriver.c **** 
  13:../BluetoothDriver.c **** //conditions for UART HRDWARE Flow Control
  14:../BluetoothDriver.c **** #define START_ASKING 0
  15:../BluetoothDriver.c **** #define STOP_ASKING 1
  16:../BluetoothDriver.c **** //conditions for UART HRDWARE Flow Control
  17:../BluetoothDriver.c **** 
  18:../BluetoothDriver.c **** 
  19:../BluetoothDriver.c **** bool initStatus = FALSE; //if initialised
  20:../BluetoothDriver.c **** bool removeInitTimerRx = FALSE;
  21:../BluetoothDriver.c **** bool removeMainTimerStatus = FALSE;
  22:../BluetoothDriver.c **** bool removeRxTimerStatus = FALSE;
  23:../BluetoothDriver.c **** bool canSend = TRUE;
  24:../BluetoothDriver.c **** 
  25:../BluetoothDriver.c **** 
  26:../BluetoothDriver.c **** //main timer for initialisation
  27:../BluetoothDriver.c **** handle_t mainInitTimerID = 0;
  28:../BluetoothDriver.c **** uint32_t mainInitTimerStatus = SYSTM001_ERROR;
  29:../BluetoothDriver.c **** //main timer for initialisation
  30:../BluetoothDriver.c **** 
  31:../BluetoothDriver.c **** //timer for receiving answers from commands
  32:../BluetoothDriver.c **** handle_t HandlTimerReceiveAnsID = 0;
  33:../BluetoothDriver.c **** uint32_t StatusReceiveAns = SYSTM001_ERROR;
  34:../BluetoothDriver.c **** //timer for receiving answers from commands
  35:../BluetoothDriver.c **** 
  36:../BluetoothDriver.c **** //timer for receiving messages
  37:../BluetoothDriver.c **** handle_t TimerIdRxMessage = 0;
  38:../BluetoothDriver.c **** uint32_t TimerStatusRxMessage = SYSTM001_ERROR;
  39:../BluetoothDriver.c **** //timer for receiving messages
  40:../BluetoothDriver.c **** 
  41:../BluetoothDriver.c **** //structure representing commands and answers
  42:../BluetoothDriver.c **** commandsAndAnswers initCommandsAnswer;
  43:../BluetoothDriver.c **** //structure representing commands and answers
  44:../BluetoothDriver.c **** 
  45:../BluetoothDriver.c **** //indicator of connection stage
  46:../BluetoothDriver.c **** int stageOfConnection = 0;
  47:../BluetoothDriver.c **** //indicator of connection stage
  48:../BluetoothDriver.c **** 
  49:../BluetoothDriver.c **** 
  50:../BluetoothDriver.c **** int stageOfInit = 0;
  51:../BluetoothDriver.c **** 
  52:../BluetoothDriver.c **** 
  53:../BluetoothDriver.c **** void resetConnection(void)
  54:../BluetoothDriver.c **** {
 111              		.loc 1 54 0
 112              		.cfi_startproc
 113              		@ args = 0, pretend = 0, frame = 0
 114              		@ frame_needed = 1, uses_anonymous_args = 0
 115 0000 80B5     		push	{r7, lr}
 116              	.LCFI0:
 117              		.cfi_def_cfa_offset 8
 118              		.cfi_offset 7, -8
 119              		.cfi_offset 14, -4
 120 0002 00AF     		add	r7, sp, #0
 121              	.LCFI1:
 122              		.cfi_def_cfa_register 7
  55:../BluetoothDriver.c **** 	removeReceiveTimer();
 123              		.loc 1 55 0
 124 0004 FFF7FEFF 		bl	removeReceiveTimer
  56:../BluetoothDriver.c **** 	createMainTimer();
 125              		.loc 1 56 0
 126 0008 FFF7FEFF 		bl	createMainTimer
  57:../BluetoothDriver.c **** }
 127              		.loc 1 57 0
 128 000c 80BD     		pop	{r7, pc}
 129              		.cfi_endproc
 130              	.LFE112:
 132 000e 00BF     		.section	.rodata
 133              		.align	2
 134              	.LC0:
 135 0000 2B524449 		.ascii	"+RDII\000"
 135      4900
 136              		.section	.text.checkErrorOccurence,"ax",%progbits
 137              		.align	2
 138              		.global	checkErrorOccurence
 139              		.thumb
 140              		.thumb_func
 142              	checkErrorOccurence:
 143              	.LFB113:
  58:../BluetoothDriver.c **** 
  59:../BluetoothDriver.c **** void checkErrorOccurence(char *allMsg)
  60:../BluetoothDriver.c **** {
 144              		.loc 1 60 0
 145              		.cfi_startproc
 146              		@ args = 0, pretend = 0, frame = 8
 147              		@ frame_needed = 1, uses_anonymous_args = 0
 148 0000 80B5     		push	{r7, lr}
 149              	.LCFI2:
 150              		.cfi_def_cfa_offset 8
 151              		.cfi_offset 7, -8
 152              		.cfi_offset 14, -4
 153 0002 82B0     		sub	sp, sp, #8
 154              	.LCFI3:
 155              		.cfi_def_cfa_offset 16
 156 0004 00AF     		add	r7, sp, #0
 157              	.LCFI4:
 158              		.cfi_def_cfa_register 7
 159 0006 7860     		str	r0, [r7, #4]
  61:../BluetoothDriver.c **** 	if(strstr(allMsg, "+") != NULL)
 160              		.loc 1 61 0
 161 0008 7868     		ldr	r0, [r7, #4]
 162 000a 4FF02B01 		mov	r1, #43
 163 000e FFF7FEFF 		bl	strchr
 164 0012 0346     		mov	r3, r0
 165 0014 002B     		cmp	r3, #0
 166 0016 27D0     		beq	.L2
  62:../BluetoothDriver.c **** 	{
  63:../BluetoothDriver.c **** 		if(strstr(allMsg, "+RDII") != NULL)//in case of disconnection
 167              		.loc 1 63 0
 168 0018 7868     		ldr	r0, [r7, #4]
 169 001a 40F20001 		movw	r1, #:lower16:.LC0
 170 001e C0F20001 		movt	r1, #:upper16:.LC0
 171 0022 FFF7FEFF 		bl	strstr
 172 0026 0346     		mov	r3, r0
 173 0028 002B     		cmp	r3, #0
 174 002a 1DD0     		beq	.L2
  64:../BluetoothDriver.c **** 		{
  65:../BluetoothDriver.c **** 			stageOfConnection = 0;
 175              		.loc 1 65 0
 176 002c 40F20003 		movw	r3, #:lower16:stageOfConnection
 177 0030 C0F20003 		movt	r3, #:upper16:stageOfConnection
 178 0034 4FF00002 		mov	r2, #0
 179 0038 1A60     		str	r2, [r3, #0]
  66:../BluetoothDriver.c **** 			stageOfInit = 0;
 180              		.loc 1 66 0
 181 003a 40F20003 		movw	r3, #:lower16:stageOfInit
 182 003e C0F20003 		movt	r3, #:upper16:stageOfInit
 183 0042 4FF00002 		mov	r2, #0
 184 0046 1A60     		str	r2, [r3, #0]
  67:../BluetoothDriver.c **** 			initStatus = FALSE;
 185              		.loc 1 67 0
 186 0048 40F20003 		movw	r3, #:lower16:initStatus
 187 004c C0F20003 		movt	r3, #:upper16:initStatus
 188 0050 4FF00002 		mov	r2, #0
 189 0054 1A70     		strb	r2, [r3, #0]
  68:../BluetoothDriver.c **** 			removeInitTimerRx = FALSE;
 190              		.loc 1 68 0
 191 0056 40F20003 		movw	r3, #:lower16:removeInitTimerRx
 192 005a C0F20003 		movt	r3, #:upper16:removeInitTimerRx
 193 005e 4FF00002 		mov	r2, #0
 194 0062 1A70     		strb	r2, [r3, #0]
  69:../BluetoothDriver.c **** 			resetConnection();
 195              		.loc 1 69 0
 196 0064 FFF7FEFF 		bl	resetConnection
 197              	.L2:
  70:../BluetoothDriver.c **** 		}
  71:../BluetoothDriver.c **** 	}
  72:../BluetoothDriver.c **** }
 198              		.loc 1 72 0
 199 0068 07F10807 		add	r7, r7, #8
 200 006c BD46     		mov	sp, r7
 201 006e 80BD     		pop	{r7, pc}
 202              		.cfi_endproc
 203              	.LFE113:
 205              		.section	.text.manageConnection,"ax",%progbits
 206              		.align	2
 207              		.global	manageConnection
 208              		.thumb
 209              		.thumb_func
 211              	manageConnection:
 212              	.LFB114:
  73:../BluetoothDriver.c **** 
  74:../BluetoothDriver.c **** void manageConnection(void)
  75:../BluetoothDriver.c **** {
 213              		.loc 1 75 0
 214              		.cfi_startproc
 215              		@ args = 0, pretend = 0, frame = 0
 216              		@ frame_needed = 1, uses_anonymous_args = 0
 217 0000 80B5     		push	{r7, lr}
 218              	.LCFI5:
 219              		.cfi_def_cfa_offset 8
 220              		.cfi_offset 7, -8
 221              		.cfi_offset 14, -4
 222 0002 00AF     		add	r7, sp, #0
 223              	.LCFI6:
 224              		.cfi_def_cfa_register 7
  76:../BluetoothDriver.c **** 	if(getStatusMainTimer())
 225              		.loc 1 76 0
 226 0004 FFF7FEFF 		bl	getStatusMainTimer
 227 0008 0346     		mov	r3, r0
 228 000a 002B     		cmp	r3, #0
 229 000c 0CD0     		beq	.L5
  77:../BluetoothDriver.c **** 	{
  78:../BluetoothDriver.c **** 		removeMainTimer();
 230              		.loc 1 78 0
 231 000e FFF7FEFF 		bl	removeMainTimer
  79:../BluetoothDriver.c **** 		setStatusMainTimer(FALSE);
 232              		.loc 1 79 0
 233 0012 4FF00000 		mov	r0, #0
 234 0016 FFF7FEFF 		bl	setStatusMainTimer
  80:../BluetoothDriver.c **** 		stageOfConnection = 1;
 235              		.loc 1 80 0
 236 001a 40F20003 		movw	r3, #:lower16:stageOfConnection
 237 001e C0F20003 		movt	r3, #:upper16:stageOfConnection
 238 0022 4FF00102 		mov	r2, #1
 239 0026 1A60     		str	r2, [r3, #0]
 240              	.L5:
  81:../BluetoothDriver.c **** 	}
  82:../BluetoothDriver.c **** 
  83:../BluetoothDriver.c **** 	if(1 == stageOfConnection)
 241              		.loc 1 83 0
 242 0028 40F20003 		movw	r3, #:lower16:stageOfConnection
 243 002c C0F20003 		movt	r3, #:upper16:stageOfConnection
 244 0030 1B68     		ldr	r3, [r3, #0]
 245 0032 012B     		cmp	r3, #1
 246 0034 20D1     		bne	.L4
  84:../BluetoothDriver.c **** 	{
  85:../BluetoothDriver.c **** 		TimerIdRxMessage = SYSTM001_CreateTimer(200,SYSTM001_PERIODIC,RxTimerHandler,NULL);
 247              		.loc 1 85 0
 248 0036 4FF0C800 		mov	r0, #200
 249 003a 4FF00101 		mov	r1, #1
 250 003e 40F20002 		movw	r2, #:lower16:RxTimerHandler
 251 0042 C0F20002 		movt	r2, #:upper16:RxTimerHandler
 252 0046 4FF00003 		mov	r3, #0
 253 004a FFF7FEFF 		bl	SYSTM001_CreateTimer
 254 004e 0246     		mov	r2, r0
 255 0050 40F20003 		movw	r3, #:lower16:TimerIdRxMessage
 256 0054 C0F20003 		movt	r3, #:upper16:TimerIdRxMessage
 257 0058 1A60     		str	r2, [r3, #0]
  86:../BluetoothDriver.c **** 		SYSTM001_StartTimer(TimerIdRxMessage);
 258              		.loc 1 86 0
 259 005a 40F20003 		movw	r3, #:lower16:TimerIdRxMessage
 260 005e C0F20003 		movt	r3, #:upper16:TimerIdRxMessage
 261 0062 1B68     		ldr	r3, [r3, #0]
 262 0064 1846     		mov	r0, r3
 263 0066 FFF7FEFF 		bl	SYSTM001_StartTimer
  87:../BluetoothDriver.c **** 		stageOfConnection = 0;
 264              		.loc 1 87 0
 265 006a 40F20003 		movw	r3, #:lower16:stageOfConnection
 266 006e C0F20003 		movt	r3, #:upper16:stageOfConnection
 267 0072 4FF00002 		mov	r2, #0
 268 0076 1A60     		str	r2, [r3, #0]
 269              	.L4:
  88:../BluetoothDriver.c **** 	}
  89:../BluetoothDriver.c **** }
 270              		.loc 1 89 0
 271 0078 80BD     		pop	{r7, pc}
 272              		.cfi_endproc
 273              	.LFE114:
 275 007a 00BF     		.section	.rodata
 276 0006 0000     		.align	2
 277              	.LC1:
 278 0008 524F4B0D 		.ascii	"ROK\015\012\000"
 278      0A00
 279 000e 0000     		.align	2
 280              	.LC2:
 281 0010 4F4B0D0A 		.ascii	"OK\015\012\000"
 281      00
 282              		.section	.text.copyCheckAnswers,"ax",%progbits
 283              		.align	2
 284              		.global	copyCheckAnswers
 285              		.thumb
 286              		.thumb_func
 288              	copyCheckAnswers:
 289              	.LFB115:
  90:../BluetoothDriver.c **** 
  91:../BluetoothDriver.c **** void copyCheckAnswers(void)
  92:../BluetoothDriver.c **** {
 290              		.loc 1 92 0
 291              		.cfi_startproc
 292              		@ args = 0, pretend = 0, frame = 0
 293              		@ frame_needed = 1, uses_anonymous_args = 0
 294              		@ link register save eliminated.
 295 0000 80B4     		push	{r7}
 296              	.LCFI7:
 297              		.cfi_def_cfa_offset 4
 298              		.cfi_offset 7, -4
 299 0002 00AF     		add	r7, sp, #0
 300              	.LCFI8:
 301              		.cfi_def_cfa_register 7
  93:../BluetoothDriver.c **** 	strcpy(initCommandsAnswer.answersBluetooth[0], "ROK\r\n");
 302              		.loc 1 93 0
 303 0004 2D4B     		ldr	r3, .L8
 304 0006 40F20002 		movw	r2, #:lower16:.LC1
 305 000a C0F20002 		movt	r2, #:upper16:.LC1
 306 000e 92E80300 		ldmia	r2, {r0, r1}
 307 0012 1860     		str	r0, [r3, #0]
 308 0014 03F10403 		add	r3, r3, #4
 309 0018 1980     		strh	r1, [r3, #0]	@ movhi
  94:../BluetoothDriver.c **** 	strcpy(initCommandsAnswer.answersBluetooth[1], "OK\r\n");
 310              		.loc 1 94 0
 311 001a 294B     		ldr	r3, .L8+4
 312 001c 40F20002 		movw	r2, #:lower16:.LC2
 313 0020 C0F20002 		movt	r2, #:upper16:.LC2
 314 0024 92E80300 		ldmia	r2, {r0, r1}
 315 0028 1860     		str	r0, [r3, #0]
 316 002a 03F10403 		add	r3, r3, #4
 317 002e 1970     		strb	r1, [r3, #0]
  95:../BluetoothDriver.c **** 	strcpy(initCommandsAnswer.answersBluetooth[2], "OK\r\n");
 318              		.loc 1 95 0
 319 0030 244B     		ldr	r3, .L8+8
 320 0032 40F20002 		movw	r2, #:lower16:.LC2
 321 0036 C0F20002 		movt	r2, #:upper16:.LC2
 322 003a 92E80300 		ldmia	r2, {r0, r1}
 323 003e 1860     		str	r0, [r3, #0]
 324 0040 03F10403 		add	r3, r3, #4
 325 0044 1970     		strb	r1, [r3, #0]
  96:../BluetoothDriver.c **** 	strcpy(initCommandsAnswer.answersBluetooth[3], "OK\r\n");
 326              		.loc 1 96 0
 327 0046 204B     		ldr	r3, .L8+12
 328 0048 40F20002 		movw	r2, #:lower16:.LC2
 329 004c C0F20002 		movt	r2, #:upper16:.LC2
 330 0050 92E80300 		ldmia	r2, {r0, r1}
 331 0054 1860     		str	r0, [r3, #0]
 332 0056 03F10403 		add	r3, r3, #4
 333 005a 1970     		strb	r1, [r3, #0]
  97:../BluetoothDriver.c **** 	strcpy(initCommandsAnswer.answersBluetooth[4], "OK\r\n");
 334              		.loc 1 97 0
 335 005c 1B4B     		ldr	r3, .L8+16
 336 005e 40F20002 		movw	r2, #:lower16:.LC2
 337 0062 C0F20002 		movt	r2, #:upper16:.LC2
 338 0066 92E80300 		ldmia	r2, {r0, r1}
 339 006a 1860     		str	r0, [r3, #0]
 340 006c 03F10403 		add	r3, r3, #4
 341 0070 1970     		strb	r1, [r3, #0]
  98:../BluetoothDriver.c **** 	strcpy(initCommandsAnswer.answersBluetooth[5], "OK\r\n");
 342              		.loc 1 98 0
 343 0072 174B     		ldr	r3, .L8+20
 344 0074 40F20002 		movw	r2, #:lower16:.LC2
 345 0078 C0F20002 		movt	r2, #:upper16:.LC2
 346 007c 92E80300 		ldmia	r2, {r0, r1}
 347 0080 1860     		str	r0, [r3, #0]
 348 0082 03F10403 		add	r3, r3, #4
 349 0086 1970     		strb	r1, [r3, #0]
  99:../BluetoothDriver.c **** 	strcpy(initCommandsAnswer.answersBluetooth[6], "OK\r\n");
 350              		.loc 1 99 0
 351 0088 124B     		ldr	r3, .L8+24
 352 008a 40F20002 		movw	r2, #:lower16:.LC2
 353 008e C0F20002 		movt	r2, #:upper16:.LC2
 354 0092 92E80300 		ldmia	r2, {r0, r1}
 355 0096 1860     		str	r0, [r3, #0]
 356 0098 03F10403 		add	r3, r3, #4
 357 009c 1970     		strb	r1, [r3, #0]
 100:../BluetoothDriver.c **** 	strcpy(initCommandsAnswer.answersBluetooth[7], "OK\r\n");
 358              		.loc 1 100 0
 359 009e 0E4B     		ldr	r3, .L8+28
 360 00a0 40F20002 		movw	r2, #:lower16:.LC2
 361 00a4 C0F20002 		movt	r2, #:upper16:.LC2
 362 00a8 92E80300 		ldmia	r2, {r0, r1}
 363 00ac 1860     		str	r0, [r3, #0]
 364 00ae 03F10403 		add	r3, r3, #4
 365 00b2 1970     		strb	r1, [r3, #0]
 101:../BluetoothDriver.c **** }
 366              		.loc 1 101 0
 367 00b4 BD46     		mov	sp, r7
 368 00b6 80BC     		pop	{r7}
 369 00b8 7047     		bx	lr
 370              	.L9:
 371 00ba 00BF     		.align	2
 372              	.L8:
 373 00bc 20030000 		.word	initCommandsAnswer+800
 374 00c0 34030000 		.word	initCommandsAnswer+820
 375 00c4 48030000 		.word	initCommandsAnswer+840
 376 00c8 5C030000 		.word	initCommandsAnswer+860
 377 00cc 70030000 		.word	initCommandsAnswer+880
 378 00d0 84030000 		.word	initCommandsAnswer+900
 379 00d4 98030000 		.word	initCommandsAnswer+920
 380 00d8 AC030000 		.word	initCommandsAnswer+940
 381              		.cfi_endproc
 382              	.LFE115:
 384              		.section	.rodata
 385 0015 000000   		.align	2
 386              	.LC3:
 387 0018 41542B4A 		.ascii	"AT+JRES\015\012\000"
 387      5245530D 
 387      0A00
 388 0022 0000     		.align	2
 389              	.LC4:
 390 0024 41542B4A 		.ascii	"AT+JSEC=4,1,04,1111,0,0\015\012\000"
 390      5345433D 
 390      342C312C 
 390      30342C31 
 390      3131312C 
 391 003e 0000     		.align	2
 392              	.LC5:
 393 0040 41542B4A 		.ascii	"AT+JSLN=07,Chmura1\015\012\000"
 393      534C4E3D 
 393      30372C43 
 393      686D7572 
 393      61310D0A 
 394 0055 000000   		.align	2
 395              	.LC6:
 396 0058 41542B4A 		.ascii	"AT+JRLS=32,13,0000110100001000800000805F9B34FB,Seri"
 396      524C533D 
 396      33322C31 
 396      332C3030 
 396      30303131 
 397 008b 616C2070 		.ascii	"al port 1,01,C20200\015\012\000"
 397      6F727420 
 397      312C3031 
 397      2C433230 
 397      3230300D 
 398 00a1 000000   		.align	2
 399              	.LC7:
 400 00a4 41542B4A 		.ascii	"AT+JAAC=1\015\012\000"
 400      4141433D 
 400      310D0A00 
 401              		.align	2
 402              	.LC8:
 403 00b0 41542B4A 		.ascii	"AT+JDIS=3\015\012\000"
 403      4449533D 
 403      330D0A00 
 404              		.align	2
 405              	.LC9:
 406 00bc 41542B4A 		.ascii	"AT+JGPC=FFFD,0000,0000,0000,FFFD\015\012\000"
 406      4750433D 
 406      46464644 
 406      2C303030 
 406      302C3030 
 407 00df 00       		.align	2
 408              	.LC10:
 409 00e0 41542B4A 		.ascii	"AT+JSCR\015\012\000"
 409      5343520D 
 409      0A00
 410 00ea 0000     		.section	.text.copyCommands,"ax",%progbits
 411              		.align	2
 412              		.global	copyCommands
 413              		.thumb
 414              		.thumb_func
 416              	copyCommands:
 417              	.LFB116:
 102:../BluetoothDriver.c **** 
 103:../BluetoothDriver.c **** void copyCommands(void)
 104:../BluetoothDriver.c **** {
 418              		.loc 1 104 0
 419              		.cfi_startproc
 420              		@ args = 0, pretend = 0, frame = 0
 421              		@ frame_needed = 1, uses_anonymous_args = 0
 422 0000 B0B5     		push	{r4, r5, r7, lr}
 423              	.LCFI9:
 424              		.cfi_def_cfa_offset 16
 425              		.cfi_offset 4, -16
 426              		.cfi_offset 5, -12
 427              		.cfi_offset 7, -8
 428              		.cfi_offset 14, -4
 429 0002 00AF     		add	r7, sp, #0
 430              	.LCFI10:
 431              		.cfi_def_cfa_register 7
 105:../BluetoothDriver.c **** 	strcpy(initCommandsAnswer.commandsBluetooth[0], "AT+JRES\r\n");
 432              		.loc 1 105 0
 433 0004 40F20003 		movw	r3, #:lower16:initCommandsAnswer
 434 0008 C0F20003 		movt	r3, #:upper16:initCommandsAnswer
 435 000c 40F20002 		movw	r2, #:lower16:.LC3
 436 0010 C0F20002 		movt	r2, #:upper16:.LC3
 437 0014 07CA     		ldmia	r2, {r0, r1, r2}
 438 0016 03C3     		stmia	r3!, {r0, r1}
 439 0018 1A80     		strh	r2, [r3, #0]	@ movhi
 106:../BluetoothDriver.c **** 	strcpy(initCommandsAnswer.commandsBluetooth[1], "AT+JSEC=4,1,04,1111,0,0\r\n");
 440              		.loc 1 106 0
 441 001a 2D4A     		ldr	r2, .L11
 442 001c 40F20003 		movw	r3, #:lower16:.LC4
 443 0020 C0F20003 		movt	r3, #:upper16:.LC4
 444 0024 1446     		mov	r4, r2
 445 0026 1D46     		mov	r5, r3
 446 0028 0FCD     		ldmia	r5!, {r0, r1, r2, r3}
 447 002a 0FC4     		stmia	r4!, {r0, r1, r2, r3}
 448 002c 95E80700 		ldmia	r5, {r0, r1, r2}
 449 0030 03C4     		stmia	r4!, {r0, r1}
 450 0032 2280     		strh	r2, [r4, #0]	@ movhi
 107:../BluetoothDriver.c **** 	strcpy(initCommandsAnswer.commandsBluetooth[2], "AT+JSLN=07,Chmura1\r\n");
 451              		.loc 1 107 0
 452 0034 274A     		ldr	r2, .L11+4
 453 0036 40F20003 		movw	r3, #:lower16:.LC5
 454 003a C0F20003 		movt	r3, #:upper16:.LC5
 455 003e 1446     		mov	r4, r2
 456 0040 1D46     		mov	r5, r3
 457 0042 0FCD     		ldmia	r5!, {r0, r1, r2, r3}
 458 0044 0FC4     		stmia	r4!, {r0, r1, r2, r3}
 459 0046 95E80300 		ldmia	r5, {r0, r1}
 460 004a 2060     		str	r0, [r4, #0]
 461 004c 04F10404 		add	r4, r4, #4
 462 0050 2170     		strb	r1, [r4, #0]
 108:../BluetoothDriver.c **** 	strcpy(initCommandsAnswer.commandsBluetooth[3], "AT+JRLS=32,13,0000110100001000800000805F9B34FB,Se
 463              		.loc 1 108 0
 464 0052 214A     		ldr	r2, .L11+8
 465 0054 40F20003 		movw	r3, #:lower16:.LC6
 466 0058 C0F20003 		movt	r3, #:upper16:.LC6
 467 005c 1146     		mov	r1, r2
 468 005e 1A46     		mov	r2, r3
 469 0060 4FF04903 		mov	r3, #73
 470 0064 0846     		mov	r0, r1
 471 0066 1146     		mov	r1, r2
 472 0068 1A46     		mov	r2, r3
 473 006a FFF7FEFF 		bl	memcpy
 109:../BluetoothDriver.c **** 	strcpy(initCommandsAnswer.commandsBluetooth[4], "AT+JAAC=1\r\n");
 474              		.loc 1 109 0
 475 006e 1B4A     		ldr	r2, .L11+12
 476 0070 40F20003 		movw	r3, #:lower16:.LC7
 477 0074 C0F20003 		movt	r3, #:upper16:.LC7
 478 0078 1446     		mov	r4, r2
 479 007a 93E80700 		ldmia	r3, {r0, r1, r2}
 480 007e 84E80700 		stmia	r4, {r0, r1, r2}
 110:../BluetoothDriver.c **** 	strcpy(initCommandsAnswer.commandsBluetooth[5], "AT+JDIS=3\r\n");
 481              		.loc 1 110 0
 482 0082 174A     		ldr	r2, .L11+16
 483 0084 40F20003 		movw	r3, #:lower16:.LC8
 484 0088 C0F20003 		movt	r3, #:upper16:.LC8
 485 008c 1446     		mov	r4, r2
 486 008e 93E80700 		ldmia	r3, {r0, r1, r2}
 487 0092 84E80700 		stmia	r4, {r0, r1, r2}
 111:../BluetoothDriver.c **** 	strcpy(initCommandsAnswer.commandsBluetooth[6], "AT+JGPC=FFFD,0000,0000,0000,FFFD\r\n");
 488              		.loc 1 111 0
 489 0096 134A     		ldr	r2, .L11+20
 490 0098 40F20003 		movw	r3, #:lower16:.LC9
 491 009c C0F20003 		movt	r3, #:upper16:.LC9
 492 00a0 1446     		mov	r4, r2
 493 00a2 1D46     		mov	r5, r3
 494 00a4 0FCD     		ldmia	r5!, {r0, r1, r2, r3}
 495 00a6 0FC4     		stmia	r4!, {r0, r1, r2, r3}
 496 00a8 0FCD     		ldmia	r5!, {r0, r1, r2, r3}
 497 00aa 0FC4     		stmia	r4!, {r0, r1, r2, r3}
 498 00ac 2B68     		ldr	r3, [r5, #0]
 499 00ae 1A46     		mov	r2, r3	@ movhi
 500 00b0 2280     		strh	r2, [r4, #0]	@ movhi
 501 00b2 04F10204 		add	r4, r4, #2
 502 00b6 4FEA1343 		lsr	r3, r3, #16
 503 00ba 2370     		strb	r3, [r4, #0]
 112:../BluetoothDriver.c **** 	strcpy(initCommandsAnswer.commandsBluetooth[7], "AT+JSCR\r\n");
 504              		.loc 1 112 0
 505 00bc 0A4B     		ldr	r3, .L11+24
 506 00be 40F20002 		movw	r2, #:lower16:.LC10
 507 00c2 C0F20002 		movt	r2, #:upper16:.LC10
 508 00c6 07CA     		ldmia	r2, {r0, r1, r2}
 509 00c8 03C3     		stmia	r3!, {r0, r1}
 510 00ca 1A80     		strh	r2, [r3, #0]	@ movhi
 113:../BluetoothDriver.c **** }
 511              		.loc 1 113 0
 512 00cc B0BD     		pop	{r4, r5, r7, pc}
 513              	.L12:
 514 00ce 00BF     		.align	2
 515              	.L11:
 516 00d0 64000000 		.word	initCommandsAnswer+100
 517 00d4 C8000000 		.word	initCommandsAnswer+200
 518 00d8 2C010000 		.word	initCommandsAnswer+300
 519 00dc 90010000 		.word	initCommandsAnswer+400
 520 00e0 F4010000 		.word	initCommandsAnswer+500
 521 00e4 58020000 		.word	initCommandsAnswer+600
 522 00e8 BC020000 		.word	initCommandsAnswer+700
 523              		.cfi_endproc
 524              	.LFE116:
 526              		.section	.text.getStatusMainTimer,"ax",%progbits
 527              		.align	2
 528              		.global	getStatusMainTimer
 529              		.thumb
 530              		.thumb_func
 532              	getStatusMainTimer:
 533              	.LFB117:
 114:../BluetoothDriver.c **** 
 115:../BluetoothDriver.c **** bool getStatusMainTimer(void)
 116:../BluetoothDriver.c **** {
 534              		.loc 1 116 0
 535              		.cfi_startproc
 536              		@ args = 0, pretend = 0, frame = 0
 537              		@ frame_needed = 1, uses_anonymous_args = 0
 538              		@ link register save eliminated.
 539 0000 80B4     		push	{r7}
 540              	.LCFI11:
 541              		.cfi_def_cfa_offset 4
 542              		.cfi_offset 7, -4
 543 0002 00AF     		add	r7, sp, #0
 544              	.LCFI12:
 545              		.cfi_def_cfa_register 7
 117:../BluetoothDriver.c **** 	return removeMainTimerStatus;
 546              		.loc 1 117 0
 547 0004 40F20003 		movw	r3, #:lower16:removeMainTimerStatus
 548 0008 C0F20003 		movt	r3, #:upper16:removeMainTimerStatus
 549 000c 1B78     		ldrb	r3, [r3, #0]	@ zero_extendqisi2
 118:../BluetoothDriver.c **** }
 550              		.loc 1 118 0
 551 000e 1846     		mov	r0, r3
 552 0010 BD46     		mov	sp, r7
 553 0012 80BC     		pop	{r7}
 554 0014 7047     		bx	lr
 555              		.cfi_endproc
 556              	.LFE117:
 558 0016 00BF     		.section	.text.setStatusMainTimer,"ax",%progbits
 559              		.align	2
 560              		.global	setStatusMainTimer
 561              		.thumb
 562              		.thumb_func
 564              	setStatusMainTimer:
 565              	.LFB118:
 119:../BluetoothDriver.c **** 
 120:../BluetoothDriver.c **** void setStatusMainTimer(int status)
 121:../BluetoothDriver.c **** {
 566              		.loc 1 121 0
 567              		.cfi_startproc
 568              		@ args = 0, pretend = 0, frame = 8
 569              		@ frame_needed = 1, uses_anonymous_args = 0
 570              		@ link register save eliminated.
 571 0000 80B4     		push	{r7}
 572              	.LCFI13:
 573              		.cfi_def_cfa_offset 4
 574              		.cfi_offset 7, -4
 575 0002 83B0     		sub	sp, sp, #12
 576              	.LCFI14:
 577              		.cfi_def_cfa_offset 16
 578 0004 00AF     		add	r7, sp, #0
 579              	.LCFI15:
 580              		.cfi_def_cfa_register 7
 581 0006 7860     		str	r0, [r7, #4]
 122:../BluetoothDriver.c **** 	removeMainTimerStatus = status;
 582              		.loc 1 122 0
 583 0008 7B68     		ldr	r3, [r7, #4]
 584 000a DAB2     		uxtb	r2, r3
 585 000c 40F20003 		movw	r3, #:lower16:removeMainTimerStatus
 586 0010 C0F20003 		movt	r3, #:upper16:removeMainTimerStatus
 587 0014 1A70     		strb	r2, [r3, #0]
 123:../BluetoothDriver.c **** }
 588              		.loc 1 123 0
 589 0016 07F10C07 		add	r7, r7, #12
 590 001a BD46     		mov	sp, r7
 591 001c 80BC     		pop	{r7}
 592 001e 7047     		bx	lr
 593              		.cfi_endproc
 594              	.LFE118:
 596              		.section	.text.removeMainTimer,"ax",%progbits
 597              		.align	2
 598              		.global	removeMainTimer
 599              		.thumb
 600              		.thumb_func
 602              	removeMainTimer:
 603              	.LFB119:
 124:../BluetoothDriver.c **** 
 125:../BluetoothDriver.c **** void removeMainTimer(void)
 126:../BluetoothDriver.c **** {
 604              		.loc 1 126 0
 605              		.cfi_startproc
 606              		@ args = 0, pretend = 0, frame = 0
 607              		@ frame_needed = 1, uses_anonymous_args = 0
 608 0000 80B5     		push	{r7, lr}
 609              	.LCFI16:
 610              		.cfi_def_cfa_offset 8
 611              		.cfi_offset 7, -8
 612              		.cfi_offset 14, -4
 613 0002 00AF     		add	r7, sp, #0
 614              	.LCFI17:
 615              		.cfi_def_cfa_register 7
 127:../BluetoothDriver.c **** 	SYSTM001_StopTimer(mainInitTimerID);
 616              		.loc 1 127 0
 617 0004 40F20003 		movw	r3, #:lower16:mainInitTimerID
 618 0008 C0F20003 		movt	r3, #:upper16:mainInitTimerID
 619 000c 1B68     		ldr	r3, [r3, #0]
 620 000e 1846     		mov	r0, r3
 621 0010 FFF7FEFF 		bl	SYSTM001_StopTimer
 128:../BluetoothDriver.c **** 	SYSTM001_DeleteTimer(mainInitTimerID);
 622              		.loc 1 128 0
 623 0014 40F20003 		movw	r3, #:lower16:mainInitTimerID
 624 0018 C0F20003 		movt	r3, #:upper16:mainInitTimerID
 625 001c 1B68     		ldr	r3, [r3, #0]
 626 001e 1846     		mov	r0, r3
 627 0020 FFF7FEFF 		bl	SYSTM001_DeleteTimer
 129:../BluetoothDriver.c **** 	mainInitTimerID = 0;
 628              		.loc 1 129 0
 629 0024 40F20003 		movw	r3, #:lower16:mainInitTimerID
 630 0028 C0F20003 		movt	r3, #:upper16:mainInitTimerID
 631 002c 4FF00002 		mov	r2, #0
 632 0030 1A60     		str	r2, [r3, #0]
 130:../BluetoothDriver.c **** }
 633              		.loc 1 130 0
 634 0032 80BD     		pop	{r7, pc}
 635              		.cfi_endproc
 636              	.LFE119:
 638              		.section	.text.removeReceiveTimer,"ax",%progbits
 639              		.align	2
 640              		.global	removeReceiveTimer
 641              		.thumb
 642              		.thumb_func
 644              	removeReceiveTimer:
 645              	.LFB120:
 131:../BluetoothDriver.c **** 
 132:../BluetoothDriver.c **** void removeReceiveTimer(void)
 133:../BluetoothDriver.c **** {
 646              		.loc 1 133 0
 647              		.cfi_startproc
 648              		@ args = 0, pretend = 0, frame = 0
 649              		@ frame_needed = 1, uses_anonymous_args = 0
 650 0000 80B5     		push	{r7, lr}
 651              	.LCFI18:
 652              		.cfi_def_cfa_offset 8
 653              		.cfi_offset 7, -8
 654              		.cfi_offset 14, -4
 655 0002 00AF     		add	r7, sp, #0
 656              	.LCFI19:
 657              		.cfi_def_cfa_register 7
 134:../BluetoothDriver.c **** 	SYSTM001_StopTimer(TimerIdRxMessage);
 658              		.loc 1 134 0
 659 0004 40F20003 		movw	r3, #:lower16:TimerIdRxMessage
 660 0008 C0F20003 		movt	r3, #:upper16:TimerIdRxMessage
 661 000c 1B68     		ldr	r3, [r3, #0]
 662 000e 1846     		mov	r0, r3
 663 0010 FFF7FEFF 		bl	SYSTM001_StopTimer
 135:../BluetoothDriver.c **** 	SYSTM001_DeleteTimer(TimerIdRxMessage);
 664              		.loc 1 135 0
 665 0014 40F20003 		movw	r3, #:lower16:TimerIdRxMessage
 666 0018 C0F20003 		movt	r3, #:upper16:TimerIdRxMessage
 667 001c 1B68     		ldr	r3, [r3, #0]
 668 001e 1846     		mov	r0, r3
 669 0020 FFF7FEFF 		bl	SYSTM001_DeleteTimer
 136:../BluetoothDriver.c **** 	TimerIdRxMessage = 0;
 670              		.loc 1 136 0
 671 0024 40F20003 		movw	r3, #:lower16:TimerIdRxMessage
 672 0028 C0F20003 		movt	r3, #:upper16:TimerIdRxMessage
 673 002c 4FF00002 		mov	r2, #0
 674 0030 1A60     		str	r2, [r3, #0]
 137:../BluetoothDriver.c **** }
 675              		.loc 1 137 0
 676 0032 80BD     		pop	{r7, pc}
 677              		.cfi_endproc
 678              	.LFE120:
 680              		.section	.text.createMainTimer,"ax",%progbits
 681              		.align	2
 682              		.global	createMainTimer
 683              		.thumb
 684              		.thumb_func
 686              	createMainTimer:
 687              	.LFB121:
 138:../BluetoothDriver.c **** 
 139:../BluetoothDriver.c **** void createMainTimer(void)
 140:../BluetoothDriver.c **** {
 688              		.loc 1 140 0
 689              		.cfi_startproc
 690              		@ args = 0, pretend = 0, frame = 0
 691              		@ frame_needed = 1, uses_anonymous_args = 0
 692 0000 80B5     		push	{r7, lr}
 693              	.LCFI20:
 694              		.cfi_def_cfa_offset 8
 695              		.cfi_offset 7, -8
 696              		.cfi_offset 14, -4
 697 0002 00AF     		add	r7, sp, #0
 698              	.LCFI21:
 699              		.cfi_def_cfa_register 7
 141:../BluetoothDriver.c **** 	mainInitTimerID = SYSTM001_CreateTimer(1000,SYSTM001_PERIODIC,timerHandlerInitBluetooth,&initComma
 700              		.loc 1 141 0
 701 0004 4FF47A70 		mov	r0, #1000
 702 0008 4FF00101 		mov	r1, #1
 703 000c 40F20002 		movw	r2, #:lower16:timerHandlerInitBluetooth
 704 0010 C0F20002 		movt	r2, #:upper16:timerHandlerInitBluetooth
 705 0014 40F20003 		movw	r3, #:lower16:initCommandsAnswer
 706 0018 C0F20003 		movt	r3, #:upper16:initCommandsAnswer
 707 001c FFF7FEFF 		bl	SYSTM001_CreateTimer
 708 0020 0246     		mov	r2, r0
 709 0022 40F20003 		movw	r3, #:lower16:mainInitTimerID
 710 0026 C0F20003 		movt	r3, #:upper16:mainInitTimerID
 711 002a 1A60     		str	r2, [r3, #0]
 142:../BluetoothDriver.c **** 	mainInitTimerStatus = SYSTM001_StartTimer(mainInitTimerID);
 712              		.loc 1 142 0
 713 002c 40F20003 		movw	r3, #:lower16:mainInitTimerID
 714 0030 C0F20003 		movt	r3, #:upper16:mainInitTimerID
 715 0034 1B68     		ldr	r3, [r3, #0]
 716 0036 1846     		mov	r0, r3
 717 0038 FFF7FEFF 		bl	SYSTM001_StartTimer
 718 003c 0246     		mov	r2, r0
 719 003e 40F20003 		movw	r3, #:lower16:mainInitTimerStatus
 720 0042 C0F20003 		movt	r3, #:upper16:mainInitTimerStatus
 721 0046 1A60     		str	r2, [r3, #0]
 143:../BluetoothDriver.c **** }
 722              		.loc 1 143 0
 723 0048 80BD     		pop	{r7, pc}
 724              		.cfi_endproc
 725              	.LFE121:
 727 004a 00BF     		.section	.text.createReceiveTimer,"ax",%progbits
 728              		.align	2
 729              		.global	createReceiveTimer
 730              		.thumb
 731              		.thumb_func
 733              	createReceiveTimer:
 734              	.LFB122:
 144:../BluetoothDriver.c **** 
 145:../BluetoothDriver.c **** void createReceiveTimer(void)
 146:../BluetoothDriver.c **** {
 735              		.loc 1 146 0
 736              		.cfi_startproc
 737              		@ args = 0, pretend = 0, frame = 0
 738              		@ frame_needed = 1, uses_anonymous_args = 0
 739 0000 80B5     		push	{r7, lr}
 740              	.LCFI22:
 741              		.cfi_def_cfa_offset 8
 742              		.cfi_offset 7, -8
 743              		.cfi_offset 14, -4
 744 0002 00AF     		add	r7, sp, #0
 745              	.LCFI23:
 746              		.cfi_def_cfa_register 7
 147:../BluetoothDriver.c **** 	TimerIdRxMessage = SYSTM001_CreateTimer(200,SYSTM001_PERIODIC,RxTimerHandler,NULL);
 747              		.loc 1 147 0
 748 0004 4FF0C800 		mov	r0, #200
 749 0008 4FF00101 		mov	r1, #1
 750 000c 40F20002 		movw	r2, #:lower16:RxTimerHandler
 751 0010 C0F20002 		movt	r2, #:upper16:RxTimerHandler
 752 0014 4FF00003 		mov	r3, #0
 753 0018 FFF7FEFF 		bl	SYSTM001_CreateTimer
 754 001c 0246     		mov	r2, r0
 755 001e 40F20003 		movw	r3, #:lower16:TimerIdRxMessage
 756 0022 C0F20003 		movt	r3, #:upper16:TimerIdRxMessage
 757 0026 1A60     		str	r2, [r3, #0]
 148:../BluetoothDriver.c **** 	SYSTM001_StartTimer(TimerIdRxMessage);
 758              		.loc 1 148 0
 759 0028 40F20003 		movw	r3, #:lower16:TimerIdRxMessage
 760 002c C0F20003 		movt	r3, #:upper16:TimerIdRxMessage
 761 0030 1B68     		ldr	r3, [r3, #0]
 762 0032 1846     		mov	r0, r3
 763 0034 FFF7FEFF 		bl	SYSTM001_StartTimer
 149:../BluetoothDriver.c **** }
 764              		.loc 1 149 0
 765 0038 80BD     		pop	{r7, pc}
 766              		.cfi_endproc
 767              	.LFE122:
 769 003a 00BF     		.section	.text.timerHandlerInitBluetooth,"ax",%progbits
 770              		.align	2
 771              		.global	timerHandlerInitBluetooth
 772              		.thumb
 773              		.thumb_func
 775              	timerHandlerInitBluetooth:
 776              	.LFB123:
 150:../BluetoothDriver.c **** 
 151:../BluetoothDriver.c **** void timerHandlerInitBluetooth(void *T)
 152:../BluetoothDriver.c **** {
 777              		.loc 1 152 0
 778              		.cfi_startproc
 779              		@ args = 0, pretend = 0, frame = 24
 780              		@ frame_needed = 1, uses_anonymous_args = 0
 781 0000 80B5     		push	{r7, lr}
 782              	.LCFI24:
 783              		.cfi_def_cfa_offset 8
 784              		.cfi_offset 7, -8
 785              		.cfi_offset 14, -4
 786 0002 86B0     		sub	sp, sp, #24
 787              	.LCFI25:
 788              		.cfi_def_cfa_offset 32
 789 0004 00AF     		add	r7, sp, #0
 790              	.LCFI26:
 791              		.cfi_def_cfa_register 7
 792 0006 7860     		str	r0, [r7, #4]
 153:../BluetoothDriver.c **** 	static uint8_t whichCommand = 0;
 154:../BluetoothDriver.c **** 
 155:../BluetoothDriver.c **** 	commandsAndAnswers *temp = (commandsAndAnswers*)T;
 793              		.loc 1 155 0
 794 0008 7B68     		ldr	r3, [r7, #4]
 795 000a 7B61     		str	r3, [r7, #20]
 156:../BluetoothDriver.c **** 
 157:../BluetoothDriver.c **** 	if(removeInitTimerRx == TRUE)
 796              		.loc 1 157 0
 797 000c 40F20003 		movw	r3, #:lower16:removeInitTimerRx
 798 0010 C0F20003 		movt	r3, #:upper16:removeInitTimerRx
 799 0014 1B78     		ldrb	r3, [r3, #0]	@ zero_extendqisi2
 800 0016 012B     		cmp	r3, #1
 801 0018 20D1     		bne	.L21
 158:../BluetoothDriver.c **** 	{
 159:../BluetoothDriver.c **** 		SYSTM001_DeleteTimer(HandlTimerReceiveAnsID);
 802              		.loc 1 159 0
 803 001a 40F20003 		movw	r3, #:lower16:HandlTimerReceiveAnsID
 804 001e C0F20003 		movt	r3, #:upper16:HandlTimerReceiveAnsID
 805 0022 1B68     		ldr	r3, [r3, #0]
 806 0024 1846     		mov	r0, r3
 807 0026 FFF7FEFF 		bl	SYSTM001_DeleteTimer
 160:../BluetoothDriver.c **** 		HandlTimerReceiveAnsID = 0;
 808              		.loc 1 160 0
 809 002a 40F20003 		movw	r3, #:lower16:HandlTimerReceiveAnsID
 810 002e C0F20003 		movt	r3, #:upper16:HandlTimerReceiveAnsID
 811 0032 4FF00002 		mov	r2, #0
 812 0036 1A60     		str	r2, [r3, #0]
 161:../BluetoothDriver.c **** 		removeInitTimerRx = FALSE;
 813              		.loc 1 161 0
 814 0038 40F20003 		movw	r3, #:lower16:removeInitTimerRx
 815 003c C0F20003 		movt	r3, #:upper16:removeInitTimerRx
 816 0040 4FF00002 		mov	r2, #0
 817 0044 1A70     		strb	r2, [r3, #0]
 162:../BluetoothDriver.c **** 		whichCommand = stageOfInit;
 818              		.loc 1 162 0
 819 0046 40F20003 		movw	r3, #:lower16:stageOfInit
 820 004a C0F20003 		movt	r3, #:upper16:stageOfInit
 821 004e 1B68     		ldr	r3, [r3, #0]
 822 0050 DAB2     		uxtb	r2, r3
 823 0052 40F20003 		movw	r3, #:lower16:whichCommand.7820
 824 0056 C0F20003 		movt	r3, #:upper16:whichCommand.7820
 825 005a 1A70     		strb	r2, [r3, #0]
 826              	.L21:
 163:../BluetoothDriver.c **** 	}
 164:../BluetoothDriver.c **** 
 165:../BluetoothDriver.c **** 	if(TRUE == initStatus)
 827              		.loc 1 165 0
 828 005c 40F20003 		movw	r3, #:lower16:initStatus
 829 0060 C0F20003 		movt	r3, #:upper16:initStatus
 830 0064 1B78     		ldrb	r3, [r3, #0]	@ zero_extendqisi2
 831 0066 012B     		cmp	r3, #1
 832 0068 06D1     		bne	.L22
 166:../BluetoothDriver.c **** 	{
 167:../BluetoothDriver.c **** 		removeMainTimerStatus = TRUE;
 833              		.loc 1 167 0
 834 006a 40F20003 		movw	r3, #:lower16:removeMainTimerStatus
 835 006e C0F20003 		movt	r3, #:upper16:removeMainTimerStatus
 836 0072 4FF00102 		mov	r2, #1
 837 0076 1A70     		strb	r2, [r3, #0]
 838              	.L22:
 168:../BluetoothDriver.c **** 	}
 169:../BluetoothDriver.c **** 
 170:../BluetoothDriver.c **** 	if(FALSE == initStatus && canSend == TRUE)
 839              		.loc 1 170 0
 840 0078 40F20003 		movw	r3, #:lower16:initStatus
 841 007c C0F20003 		movt	r3, #:upper16:initStatus
 842 0080 1B78     		ldrb	r3, [r3, #0]	@ zero_extendqisi2
 843 0082 002B     		cmp	r3, #0
 844 0084 58D1     		bne	.L20
 845              		.loc 1 170 0 is_stmt 0 discriminator 1
 846 0086 40F20003 		movw	r3, #:lower16:canSend
 847 008a C0F20003 		movt	r3, #:upper16:canSend
 848 008e 1B78     		ldrb	r3, [r3, #0]	@ zero_extendqisi2
 849 0090 012B     		cmp	r3, #1
 850 0092 51D1     		bne	.L20
 851              	.LBB2:
 171:../BluetoothDriver.c **** 	{
 172:../BluetoothDriver.c **** 		//whichCommand = stageOfInit;
 173:../BluetoothDriver.c **** 		volatile int length = strlen(temp->commandsBluetooth[whichCommand]);
 852              		.loc 1 173 0 is_stmt 1
 853 0094 40F20003 		movw	r3, #:lower16:whichCommand.7820
 854 0098 C0F20003 		movt	r3, #:upper16:whichCommand.7820
 855 009c 1B78     		ldrb	r3, [r3, #0]	@ zero_extendqisi2
 856 009e 4FF06402 		mov	r2, #100
 857 00a2 02FB03F3 		mul	r3, r2, r3
 858 00a6 7A69     		ldr	r2, [r7, #20]
 859 00a8 D318     		adds	r3, r2, r3
 860 00aa 1846     		mov	r0, r3
 861 00ac FFF7FEFF 		bl	strlen
 862 00b0 0346     		mov	r3, r0
 863 00b2 FB60     		str	r3, [r7, #12]
 174:../BluetoothDriver.c **** 
 175:../BluetoothDriver.c **** 		send(temp->commandsBluetooth[whichCommand], length);
 864              		.loc 1 175 0
 865 00b4 40F20003 		movw	r3, #:lower16:whichCommand.7820
 866 00b8 C0F20003 		movt	r3, #:upper16:whichCommand.7820
 867 00bc 1B78     		ldrb	r3, [r3, #0]	@ zero_extendqisi2
 868 00be 4FF06402 		mov	r2, #100
 869 00c2 02FB03F3 		mul	r3, r2, r3
 870 00c6 7A69     		ldr	r2, [r7, #20]
 871 00c8 D218     		adds	r2, r2, r3
 872 00ca FB68     		ldr	r3, [r7, #12]
 873 00cc 1046     		mov	r0, r2
 874 00ce 1946     		mov	r1, r3
 875 00d0 FFF7FEFF 		bl	send
 176:../BluetoothDriver.c **** 
 177:../BluetoothDriver.c **** 		while((UART001_GetFlagStatus(&UART001_Handle0,UART001_TRANSFER_STATUS_BUSY_FLAG )==UART001_SET))
 876              		.loc 1 177 0
 877 00d4 02E0     		b	.L24
 878              	.L25:
 879              	.LBB3:
 178:../BluetoothDriver.c **** 		{
 179:../BluetoothDriver.c **** 			int h = 0;
 880              		.loc 1 179 0
 881 00d6 4FF00003 		mov	r3, #0
 882 00da 3B61     		str	r3, [r7, #16]
 883              	.L24:
 884              	.LBE3:
 177:../BluetoothDriver.c **** 		while((UART001_GetFlagStatus(&UART001_Handle0,UART001_TRANSFER_STATUS_BUSY_FLAG )==UART001_SET))
 885              		.loc 1 177 0 discriminator 1
 886 00dc 40F20000 		movw	r0, #:lower16:UART001_Handle0
 887 00e0 C0F20000 		movt	r0, #:upper16:UART001_Handle0
 888 00e4 4FF00901 		mov	r1, #9
 889 00e8 FFF7FEFF 		bl	UART001_GetFlagStatus
 890 00ec 0346     		mov	r3, r0
 891 00ee 022B     		cmp	r3, #2
 892 00f0 F1D0     		beq	.L25
 180:../BluetoothDriver.c **** 		}
 181:../BluetoothDriver.c **** 
 182:../BluetoothDriver.c **** 		canSend = FALSE;
 893              		.loc 1 182 0
 894 00f2 40F20003 		movw	r3, #:lower16:canSend
 895 00f6 C0F20003 		movt	r3, #:upper16:canSend
 896 00fa 4FF00002 		mov	r2, #0
 897 00fe 1A70     		strb	r2, [r3, #0]
 183:../BluetoothDriver.c **** 		askAboutSending();
 898              		.loc 1 183 0
 899 0100 FFF7FEFF 		bl	askAboutSending
 184:../BluetoothDriver.c **** 		HandlTimerReceiveAnsID = SYSTM001_CreateTimer(300,SYSTM001_ONE_SHOT,timerHandlerInitBluetoothRece
 900              		.loc 1 184 0
 901 0104 4FF49670 		mov	r0, #300
 902 0108 4FF00001 		mov	r1, #0
 903 010c 40F20002 		movw	r2, #:lower16:timerHandlerInitBluetoothReceive
 904 0110 C0F20002 		movt	r2, #:upper16:timerHandlerInitBluetoothReceive
 905 0114 4FF00003 		mov	r3, #0
 906 0118 FFF7FEFF 		bl	SYSTM001_CreateTimer
 907 011c 0246     		mov	r2, r0
 908 011e 40F20003 		movw	r3, #:lower16:HandlTimerReceiveAnsID
 909 0122 C0F20003 		movt	r3, #:upper16:HandlTimerReceiveAnsID
 910 0126 1A60     		str	r2, [r3, #0]
 185:../BluetoothDriver.c **** 		SYSTM001_StartTimer(HandlTimerReceiveAnsID);
 911              		.loc 1 185 0
 912 0128 40F20003 		movw	r3, #:lower16:HandlTimerReceiveAnsID
 913 012c C0F20003 		movt	r3, #:upper16:HandlTimerReceiveAnsID
 914 0130 1B68     		ldr	r3, [r3, #0]
 915 0132 1846     		mov	r0, r3
 916 0134 FFF7FEFF 		bl	SYSTM001_StartTimer
 917              	.L20:
 918              	.LBE2:
 186:../BluetoothDriver.c **** 	}
 187:../BluetoothDriver.c **** }
 919              		.loc 1 187 0
 920 0138 07F11807 		add	r7, r7, #24
 921 013c BD46     		mov	sp, r7
 922 013e 80BD     		pop	{r7, pc}
 923              		.cfi_endproc
 924              	.LFE123:
 926              		.section	.text.timerHandlerInitBluetoothReceive,"ax",%progbits
 927              		.align	2
 928              		.global	timerHandlerInitBluetoothReceive
 929              		.thumb
 930              		.thumb_func
 932              	timerHandlerInitBluetoothReceive:
 933              	.LFB124:
 188:../BluetoothDriver.c **** 
 189:../BluetoothDriver.c **** 
 190:../BluetoothDriver.c **** void timerHandlerInitBluetoothReceive(void *T)
 191:../BluetoothDriver.c **** {
 934              		.loc 1 191 0
 935              		.cfi_startproc
 936              		@ args = 0, pretend = 0, frame = 16
 937              		@ frame_needed = 1, uses_anonymous_args = 0
 938 0000 80B5     		push	{r7, lr}
 939              	.LCFI27:
 940              		.cfi_def_cfa_offset 8
 941              		.cfi_offset 7, -8
 942              		.cfi_offset 14, -4
 943 0002 84B0     		sub	sp, sp, #16
 944              	.LCFI28:
 945              		.cfi_def_cfa_offset 24
 946 0004 00AF     		add	r7, sp, #0
 947              	.LCFI29:
 948              		.cfi_def_cfa_register 7
 949 0006 7860     		str	r0, [r7, #4]
 192:../BluetoothDriver.c **** 	char* answer = (char*)read();
 950              		.loc 1 192 0
 951 0008 FFF7FEFF 		bl	read
 952 000c F860     		str	r0, [r7, #12]
 193:../BluetoothDriver.c **** 	//delay(10000);
 194:../BluetoothDriver.c **** 	//askAboutSending();
 195:../BluetoothDriver.c **** 
 196:../BluetoothDriver.c **** 	if(answer != NULL)
 953              		.loc 1 196 0
 954 000e FB68     		ldr	r3, [r7, #12]
 955 0010 002B     		cmp	r3, #0
 956 0012 3FD0     		beq	.L27
 197:../BluetoothDriver.c **** 	{
 198:../BluetoothDriver.c **** 		if(checkFunction((unsigned char*)answer, (unsigned char*)initCommandsAnswer.answersBluetooth[stag
 957              		.loc 1 198 0
 958 0014 40F20003 		movw	r3, #:lower16:stageOfInit
 959 0018 C0F20003 		movt	r3, #:upper16:stageOfInit
 960 001c 1A68     		ldr	r2, [r3, #0]
 961 001e 1346     		mov	r3, r2
 962 0020 4FEA8303 		lsl	r3, r3, #2
 963 0024 9B18     		adds	r3, r3, r2
 964 0026 4FEA8303 		lsl	r3, r3, #2
 965 002a 03F54872 		add	r2, r3, #800
 966 002e 40F20003 		movw	r3, #:lower16:initCommandsAnswer
 967 0032 C0F20003 		movt	r3, #:upper16:initCommandsAnswer
 968 0036 D318     		adds	r3, r2, r3
 969 0038 F868     		ldr	r0, [r7, #12]
 970 003a 1946     		mov	r1, r3
 971 003c FFF7FEFF 		bl	checkFunction
 972 0040 0346     		mov	r3, r0
 973 0042 002B     		cmp	r3, #0
 974 0044 0BD0     		beq	.L28
 199:../BluetoothDriver.c **** 		{
 200:../BluetoothDriver.c **** 			stageOfInit++;
 975              		.loc 1 200 0
 976 0046 40F20003 		movw	r3, #:lower16:stageOfInit
 977 004a C0F20003 		movt	r3, #:upper16:stageOfInit
 978 004e 1B68     		ldr	r3, [r3, #0]
 979 0050 03F10102 		add	r2, r3, #1
 980 0054 40F20003 		movw	r3, #:lower16:stageOfInit
 981 0058 C0F20003 		movt	r3, #:upper16:stageOfInit
 982 005c 1A60     		str	r2, [r3, #0]
 983              	.L28:
 201:../BluetoothDriver.c **** 		}
 202:../BluetoothDriver.c **** 		free(answer);
 984              		.loc 1 202 0
 985 005e F868     		ldr	r0, [r7, #12]
 986 0060 FFF7FEFF 		bl	free
 203:../BluetoothDriver.c **** 		answer = NULL;
 987              		.loc 1 203 0
 988 0064 4FF00003 		mov	r3, #0
 989 0068 FB60     		str	r3, [r7, #12]
 204:../BluetoothDriver.c **** 		if(8 == stageOfInit)
 990              		.loc 1 204 0
 991 006a 40F20003 		movw	r3, #:lower16:stageOfInit
 992 006e C0F20003 		movt	r3, #:upper16:stageOfInit
 993 0072 1B68     		ldr	r3, [r3, #0]
 994 0074 082B     		cmp	r3, #8
 995 0076 0DD1     		bne	.L27
 205:../BluetoothDriver.c **** 		{
 206:../BluetoothDriver.c **** 			stageOfInit = 0;
 996              		.loc 1 206 0
 997 0078 40F20003 		movw	r3, #:lower16:stageOfInit
 998 007c C0F20003 		movt	r3, #:upper16:stageOfInit
 999 0080 4FF00002 		mov	r2, #0
 1000 0084 1A60     		str	r2, [r3, #0]
 207:../BluetoothDriver.c **** 			initStatus = TRUE;
 1001              		.loc 1 207 0
 1002 0086 40F20003 		movw	r3, #:lower16:initStatus
 1003 008a C0F20003 		movt	r3, #:upper16:initStatus
 1004 008e 4FF00102 		mov	r2, #1
 1005 0092 1A70     		strb	r2, [r3, #0]
 1006              	.L27:
 208:../BluetoothDriver.c **** 		}
 209:../BluetoothDriver.c **** 	}
 210:../BluetoothDriver.c **** 	canSend = TRUE;
 1007              		.loc 1 210 0
 1008 0094 40F20003 		movw	r3, #:lower16:canSend
 1009 0098 C0F20003 		movt	r3, #:upper16:canSend
 1010 009c 4FF00102 		mov	r2, #1
 1011 00a0 1A70     		strb	r2, [r3, #0]
 211:../BluetoothDriver.c **** 	removeInitTimerRx = TRUE;
 1012              		.loc 1 211 0
 1013 00a2 40F20003 		movw	r3, #:lower16:removeInitTimerRx
 1014 00a6 C0F20003 		movt	r3, #:upper16:removeInitTimerRx
 1015 00aa 4FF00102 		mov	r2, #1
 1016 00ae 1A70     		strb	r2, [r3, #0]
 212:../BluetoothDriver.c **** }
 1017              		.loc 1 212 0
 1018 00b0 07F11007 		add	r7, r7, #16
 1019 00b4 BD46     		mov	sp, r7
 1020 00b6 80BD     		pop	{r7, pc}
 1021              		.cfi_endproc
 1022              	.LFE124:
 1024              		.section	.text.RxTimerHandler,"ax",%progbits
 1025              		.align	2
 1026              		.global	RxTimerHandler
 1027              		.thumb
 1028              		.thumb_func
 1030              	RxTimerHandler:
 1031              	.LFB125:
 213:../BluetoothDriver.c **** 
 214:../BluetoothDriver.c **** void RxTimerHandler(void *T)
 215:../BluetoothDriver.c **** {
 1032              		.loc 1 215 0
 1033              		.cfi_startproc
 1034              		@ args = 0, pretend = 0, frame = 16
 1035              		@ frame_needed = 1, uses_anonymous_args = 0
 1036 0000 80B5     		push	{r7, lr}
 1037              	.LCFI30:
 1038              		.cfi_def_cfa_offset 8
 1039              		.cfi_offset 7, -8
 1040              		.cfi_offset 14, -4
 1041 0002 84B0     		sub	sp, sp, #16
 1042              	.LCFI31:
 1043              		.cfi_def_cfa_offset 24
 1044 0004 00AF     		add	r7, sp, #0
 1045              	.LCFI32:
 1046              		.cfi_def_cfa_register 7
 1047 0006 7860     		str	r0, [r7, #4]
 216:../BluetoothDriver.c **** 	char* answer = (char*)read();
 1048              		.loc 1 216 0
 1049 0008 FFF7FEFF 		bl	read
 1050 000c F860     		str	r0, [r7, #12]
 217:../BluetoothDriver.c **** 	if(answer != NULL){
 1051              		.loc 1 217 0
 1052 000e FB68     		ldr	r3, [r7, #12]
 1053 0010 002B     		cmp	r3, #0
 1054 0012 08D0     		beq	.L29
 218:../BluetoothDriver.c **** 		checkErrorOccurence(answer);
 1055              		.loc 1 218 0
 1056 0014 F868     		ldr	r0, [r7, #12]
 1057 0016 FFF7FEFF 		bl	checkErrorOccurence
 219:../BluetoothDriver.c **** 		free(answer);
 1058              		.loc 1 219 0
 1059 001a F868     		ldr	r0, [r7, #12]
 1060 001c FFF7FEFF 		bl	free
 220:../BluetoothDriver.c **** 		answer = NULL;
 1061              		.loc 1 220 0
 1062 0020 4FF00003 		mov	r3, #0
 1063 0024 FB60     		str	r3, [r7, #12]
 1064              	.L29:
 221:../BluetoothDriver.c **** 	}
 222:../BluetoothDriver.c **** }
 1065              		.loc 1 222 0
 1066 0026 07F11007 		add	r7, r7, #16
 1067 002a BD46     		mov	sp, r7
 1068 002c 80BD     		pop	{r7, pc}
 1069              		.cfi_endproc
 1070              	.LFE125:
 1072 002e 00BF     		.section	.text.initBluetooth,"ax",%progbits
 1073              		.align	2
 1074              		.global	initBluetooth
 1075              		.thumb
 1076              		.thumb_func
 1078              	initBluetooth:
 1079              	.LFB126:
 223:../BluetoothDriver.c **** 
 224:../BluetoothDriver.c **** void initBluetooth(void)
 225:../BluetoothDriver.c **** {
 1080              		.loc 1 225 0
 1081              		.cfi_startproc
 1082              		@ args = 0, pretend = 0, frame = 0
 1083              		@ frame_needed = 1, uses_anonymous_args = 0
 1084 0000 80B5     		push	{r7, lr}
 1085              	.LCFI33:
 1086              		.cfi_def_cfa_offset 8
 1087              		.cfi_offset 7, -8
 1088              		.cfi_offset 14, -4
 1089 0002 00AF     		add	r7, sp, #0
 1090              	.LCFI34:
 1091              		.cfi_def_cfa_register 7
 226:../BluetoothDriver.c **** 	initFlowControl();
 1092              		.loc 1 226 0
 1093 0004 FFF7FEFF 		bl	initFlowControl
 227:../BluetoothDriver.c **** 	copyCheckAnswers();
 1094              		.loc 1 227 0
 1095 0008 FFF7FEFF 		bl	copyCheckAnswers
 228:../BluetoothDriver.c **** 	copyCommands();
 1096              		.loc 1 228 0
 1097 000c FFF7FEFF 		bl	copyCommands
 229:../BluetoothDriver.c **** 
 230:../BluetoothDriver.c **** 	createMainTimer();
 1098              		.loc 1 230 0
 1099 0010 FFF7FEFF 		bl	createMainTimer
 231:../BluetoothDriver.c **** }
 1100              		.loc 1 231 0
 1101 0014 80BD     		pop	{r7, pc}
 1102              		.cfi_endproc
 1103              	.LFE126:
 1105 0016 00BF     		.section	.text.send,"ax",%progbits
 1106              		.align	2
 1107              		.global	send
 1108              		.thumb
 1109              		.thumb_func
 1111              	send:
 1112              	.LFB127:
 232:../BluetoothDriver.c **** 
 233:../BluetoothDriver.c **** void send(char* command1, int length)
 234:../BluetoothDriver.c **** {
 1113              		.loc 1 234 0
 1114              		.cfi_startproc
 1115              		@ args = 0, pretend = 0, frame = 24
 1116              		@ frame_needed = 1, uses_anonymous_args = 0
 1117 0000 80B5     		push	{r7, lr}
 1118              	.LCFI35:
 1119              		.cfi_def_cfa_offset 8
 1120              		.cfi_offset 7, -8
 1121              		.cfi_offset 14, -4
 1122 0002 86B0     		sub	sp, sp, #24
 1123              	.LCFI36:
 1124              		.cfi_def_cfa_offset 32
 1125 0004 00AF     		add	r7, sp, #0
 1126              	.LCFI37:
 1127              		.cfi_def_cfa_register 7
 1128 0006 7860     		str	r0, [r7, #4]
 1129 0008 3960     		str	r1, [r7, #0]
 235:../BluetoothDriver.c **** 	static int criticValue = 0;
 236:../BluetoothDriver.c **** 	if(!statusRtsFlowControl())
 1130              		.loc 1 236 0
 1131 000a FFF7FEFF 		bl	statusRtsFlowControl
 1132 000e 0346     		mov	r3, r0
 1133 0010 002B     		cmp	r3, #0
 1134 0012 01D1     		bne	.L33
 237:../BluetoothDriver.c **** 	{
 238:../BluetoothDriver.c **** 		stopAskingAboutSending();
 1135              		.loc 1 238 0
 1136 0014 FFF7FEFF 		bl	stopAskingAboutSending
 1137              	.L33:
 239:../BluetoothDriver.c **** 	}
 240:../BluetoothDriver.c **** 
 241:../BluetoothDriver.c **** 	USIC_CH_TypeDef* UartRegs = UART001_Handle0.UartRegs;
 1138              		.loc 1 241 0
 1139 0018 40F20003 		movw	r3, #:lower16:UART001_Handle0
 1140 001c C0F20003 		movt	r3, #:upper16:UART001_Handle0
 1141 0020 1B68     		ldr	r3, [r3, #0]
 1142 0022 3B61     		str	r3, [r7, #16]
 242:../BluetoothDriver.c **** 	uint32_t WriteCount = 0;
 1143              		.loc 1 242 0
 1144 0024 4FF00003 		mov	r3, #0
 1145 0028 7B61     		str	r3, [r7, #20]
 243:../BluetoothDriver.c **** 
 244:../BluetoothDriver.c **** 	while(length)
 1146              		.loc 1 244 0
 1147 002a 4AE0     		b	.L34
 1148              	.L38:
 245:../BluetoothDriver.c **** 	{
 246:../BluetoothDriver.c **** 
 247:../BluetoothDriver.c **** 		if(!(USIC_CH_TCSR_TDV_Msk & UartRegs->TCSR))
 1149              		.loc 1 247 0
 1150 002c 3B69     		ldr	r3, [r7, #16]
 1151 002e 9B6B     		ldr	r3, [r3, #56]
 1152 0030 03F08003 		and	r3, r3, #128
 1153 0034 002B     		cmp	r3, #0
 1154 0036 31D1     		bne	.L35
 248:../BluetoothDriver.c **** 		{
 249:../BluetoothDriver.c **** 			if(!checkStatusCts())
 1155              		.loc 1 249 0
 1156 0038 FFF7FEFF 		bl	checkStatusCts
 1157 003c 0346     		mov	r3, r0
 1158 003e 002B     		cmp	r3, #0
 1159 0040 11D1     		bne	.L36
 1160              	.LBB4:
 250:../BluetoothDriver.c **** 			{
 251:../BluetoothDriver.c **** 				char c = command1[WriteCount];
 1161              		.loc 1 251 0
 1162 0042 7A68     		ldr	r2, [r7, #4]
 1163 0044 7B69     		ldr	r3, [r7, #20]
 1164 0046 D318     		adds	r3, r2, r3
 1165 0048 1B78     		ldrb	r3, [r3, #0]
 1166 004a FB73     		strb	r3, [r7, #15]
 252:../BluetoothDriver.c **** 
 253:../BluetoothDriver.c **** 				UartRegs->TBUF[0] = c;
 1167              		.loc 1 253 0
 1168 004c FA7B     		ldrb	r2, [r7, #15]	@ zero_extendqisi2
 1169 004e 3B69     		ldr	r3, [r7, #16]
 1170 0050 C3F88020 		str	r2, [r3, #128]
 254:../BluetoothDriver.c **** 				length--;
 1171              		.loc 1 254 0
 1172 0054 3B68     		ldr	r3, [r7, #0]
 1173 0056 03F1FF33 		add	r3, r3, #-1
 1174 005a 3B60     		str	r3, [r7, #0]
 255:../BluetoothDriver.c **** 				WriteCount++;
 1175              		.loc 1 255 0
 1176 005c 7B69     		ldr	r3, [r7, #20]
 1177 005e 03F10103 		add	r3, r3, #1
 1178 0062 7B61     		str	r3, [r7, #20]
 1179 0064 1AE0     		b	.L35
 1180              	.L36:
 1181              	.LBE4:
 256:../BluetoothDriver.c **** 			}
 257:../BluetoothDriver.c **** 			else
 258:../BluetoothDriver.c **** 			{
 259:../BluetoothDriver.c **** 				criticValue++;
 1182              		.loc 1 259 0
 1183 0066 40F20003 		movw	r3, #:lower16:criticValue.7842
 1184 006a C0F20003 		movt	r3, #:upper16:criticValue.7842
 1185 006e 1B68     		ldr	r3, [r3, #0]
 1186 0070 03F10102 		add	r2, r3, #1
 1187 0074 40F20003 		movw	r3, #:lower16:criticValue.7842
 1188 0078 C0F20003 		movt	r3, #:upper16:criticValue.7842
 1189 007c 1A60     		str	r2, [r3, #0]
 260:../BluetoothDriver.c **** 
 261:../BluetoothDriver.c **** 				if(criticValue > 3)
 1190              		.loc 1 261 0
 1191 007e 40F20003 		movw	r3, #:lower16:criticValue.7842
 1192 0082 C0F20003 		movt	r3, #:upper16:criticValue.7842
 1193 0086 1B68     		ldr	r3, [r3, #0]
 1194 0088 032B     		cmp	r3, #3
 1195 008a 07DD     		ble	.L35
 262:../BluetoothDriver.c **** 				{
 263:../BluetoothDriver.c **** 					criticValue = 0;
 1196              		.loc 1 263 0
 1197 008c 40F20003 		movw	r3, #:lower16:criticValue.7842
 1198 0090 C0F20003 		movt	r3, #:upper16:criticValue.7842
 1199 0094 4FF00002 		mov	r2, #0
 1200 0098 1A60     		str	r2, [r3, #0]
 264:../BluetoothDriver.c **** 					break;
 1201              		.loc 1 264 0
 1202 009a 15E0     		b	.L32
 1203              	.L35:
 265:../BluetoothDriver.c **** 				}
 266:../BluetoothDriver.c **** 			}
 267:../BluetoothDriver.c **** 		}
 268:../BluetoothDriver.c **** 
 269:../BluetoothDriver.c **** 		if(UART001_GetFlagStatus(&UART001_Handle0,UART001_TRANS_BUFFER_IND_FLAG) == UART001_SET)
 1204              		.loc 1 269 0
 1205 009c 40F20000 		movw	r0, #:lower16:UART001_Handle0
 1206 00a0 C0F20000 		movt	r0, #:upper16:UART001_Handle0
 1207 00a4 4FF00D01 		mov	r1, #13
 1208 00a8 FFF7FEFF 		bl	UART001_GetFlagStatus
 1209 00ac 0346     		mov	r3, r0
 1210 00ae 022B     		cmp	r3, #2
 1211 00b0 07D1     		bne	.L34
 270:../BluetoothDriver.c **** 		{
 271:../BluetoothDriver.c **** 			UART001_ClearFlag(&UART001_Handle0,UART001_TRANS_BUFFER_IND_FLAG);
 1212              		.loc 1 271 0
 1213 00b2 40F20000 		movw	r0, #:lower16:UART001_Handle0
 1214 00b6 C0F20000 		movt	r0, #:upper16:UART001_Handle0
 1215 00ba 4FF00D01 		mov	r1, #13
 1216 00be FFF7FEFF 		bl	UART001_ClearFlag
 1217              	.L34:
 244:../BluetoothDriver.c **** 	while(length)
 1218              		.loc 1 244 0 discriminator 1
 1219 00c2 3B68     		ldr	r3, [r7, #0]
 1220 00c4 002B     		cmp	r3, #0
 1221 00c6 B1D1     		bne	.L38
 1222              	.L32:
 272:../BluetoothDriver.c **** 		}
 273:../BluetoothDriver.c **** 	}
 274:../BluetoothDriver.c **** }
 1223              		.loc 1 274 0
 1224 00c8 07F11807 		add	r7, r7, #24
 1225 00cc BD46     		mov	sp, r7
 1226 00ce 80BD     		pop	{r7, pc}
 1227              		.cfi_endproc
 1228              	.LFE127:
 1230              		.section	.text.read,"ax",%progbits
 1231              		.align	2
 1232              		.global	read
 1233              		.thumb
 1234              		.thumb_func
 1236              	read:
 1237              	.LFB128:
 275:../BluetoothDriver.c **** 
 276:../BluetoothDriver.c **** 
 277:../BluetoothDriver.c **** 
 278:../BluetoothDriver.c **** 
 279:../BluetoothDriver.c **** unsigned char* read(void)
 280:../BluetoothDriver.c **** {
 1238              		.loc 1 280 0
 1239              		.cfi_startproc
 1240              		@ args = 0, pretend = 0, frame = 16
 1241              		@ frame_needed = 1, uses_anonymous_args = 0
 1242 0000 80B5     		push	{r7, lr}
 1243              	.LCFI38:
 1244              		.cfi_def_cfa_offset 8
 1245              		.cfi_offset 7, -8
 1246              		.cfi_offset 14, -4
 1247 0002 84B0     		sub	sp, sp, #16
 1248              	.LCFI39:
 1249              		.cfi_def_cfa_offset 24
 1250 0004 00AF     		add	r7, sp, #0
 1251              	.LCFI40:
 1252              		.cfi_def_cfa_register 7
 281:../BluetoothDriver.c **** 	askAboutSending();
 1253              		.loc 1 281 0
 1254 0006 FFF7FEFF 		bl	askAboutSending
 282:../BluetoothDriver.c **** 	unsigned char *readBuffer = NULL;
 1255              		.loc 1 282 0
 1256 000a 4FF00003 		mov	r3, #0
 1257 000e FB60     		str	r3, [r7, #12]
 283:../BluetoothDriver.c **** 	int statusRxFifoFilling = 0;
 1258              		.loc 1 283 0
 1259 0010 4FF00003 		mov	r3, #0
 1260 0014 BB60     		str	r3, [r7, #8]
 284:../BluetoothDriver.c **** 	int howManyRead = 0;
 1261              		.loc 1 284 0
 1262 0016 4FF00003 		mov	r3, #0
 1263 001a 7B60     		str	r3, [r7, #4]
 285:../BluetoothDriver.c **** 
 286:../BluetoothDriver.c **** 	statusRxFifoFilling = USIC_GetRxFIFOFillingLevel(UART001_0_USIC_CH);
 1264              		.loc 1 286 0
 1265 001c 4FF00003 		mov	r3, #0
 1266 0020 C4F60203 		movt	r3, 18434
 1267 0024 D3F81431 		ldr	r3, [r3, #276]
 1268 0028 03F4FE03 		and	r3, r3, #8323072
 1269 002c 4FEA1343 		lsr	r3, r3, #16
 1270 0030 BB60     		str	r3, [r7, #8]
 287:../BluetoothDriver.c **** 
 288:../BluetoothDriver.c **** 	if(((UART001_GetFlagStatus(&UART001_Handle0,UART001_FIFO_STD_RECV_BUF_FLAG)) == UART001_SET))
 1271              		.loc 1 288 0
 1272 0032 40F20000 		movw	r0, #:lower16:UART001_Handle0
 1273 0036 C0F20000 		movt	r0, #:upper16:UART001_Handle0
 1274 003a 4FF01001 		mov	r1, #16
 1275 003e FFF7FEFF 		bl	UART001_GetFlagStatus
 1276 0042 0346     		mov	r3, r0
 1277 0044 022B     		cmp	r3, #2
 1278 0046 49D1     		bne	.L40
 289:../BluetoothDriver.c **** 	{
 290:../BluetoothDriver.c **** 
 291:../BluetoothDriver.c **** 		statusRxFifoFilling = USIC_GetRxFIFOFillingLevel(UART001_0_USIC_CH);
 1279              		.loc 1 291 0
 1280 0048 4FF00003 		mov	r3, #0
 1281 004c C4F60203 		movt	r3, 18434
 1282 0050 D3F81431 		ldr	r3, [r3, #276]
 1283 0054 03F4FE03 		and	r3, r3, #8323072
 1284 0058 4FEA1343 		lsr	r3, r3, #16
 1285 005c BB60     		str	r3, [r7, #8]
 292:../BluetoothDriver.c **** 
 293:../BluetoothDriver.c **** 		if(statusRxFifoFilling != 0)
 1286              		.loc 1 293 0
 1287 005e BB68     		ldr	r3, [r7, #8]
 1288 0060 002B     		cmp	r3, #0
 1289 0062 18D0     		beq	.L41
 294:../BluetoothDriver.c **** 		{
 295:../BluetoothDriver.c **** 			readBuffer = (unsigned char *)malloc((sizeof(unsigned char)*statusRxFifoFilling) + 1);
 1290              		.loc 1 295 0
 1291 0064 BB68     		ldr	r3, [r7, #8]
 1292 0066 03F10103 		add	r3, r3, #1
 1293 006a 1846     		mov	r0, r3
 1294 006c FFF7FEFF 		bl	malloc
 1295 0070 0346     		mov	r3, r0
 1296 0072 FB60     		str	r3, [r7, #12]
 296:../BluetoothDriver.c **** 
 297:../BluetoothDriver.c **** 			howManyRead =  UART001_ReadDataBytes(&UART001_Handle0, readBuffer, statusRxFifoFilling);
 1297              		.loc 1 297 0
 1298 0074 BB68     		ldr	r3, [r7, #8]
 1299 0076 40F20000 		movw	r0, #:lower16:UART001_Handle0
 1300 007a C0F20000 		movt	r0, #:upper16:UART001_Handle0
 1301 007e F968     		ldr	r1, [r7, #12]
 1302 0080 1A46     		mov	r2, r3
 1303 0082 FFF7FEFF 		bl	UART001_ReadDataBytes
 1304 0086 0346     		mov	r3, r0
 1305 0088 7B60     		str	r3, [r7, #4]
 298:../BluetoothDriver.c **** 
 299:../BluetoothDriver.c **** 			readBuffer[statusRxFifoFilling] = '\0';
 1306              		.loc 1 299 0
 1307 008a BB68     		ldr	r3, [r7, #8]
 1308 008c FA68     		ldr	r2, [r7, #12]
 1309 008e D318     		adds	r3, r2, r3
 1310 0090 4FF00002 		mov	r2, #0
 1311 0094 1A70     		strb	r2, [r3, #0]
 1312              	.L41:
 300:../BluetoothDriver.c **** 		}
 301:../BluetoothDriver.c **** 
 302:../BluetoothDriver.c **** 		UART001_ClearFlag(&UART001_Handle0,UART001_FIFO_STD_RECV_BUF_FLAG);
 1313              		.loc 1 302 0
 1314 0096 40F20000 		movw	r0, #:lower16:UART001_Handle0
 1315 009a C0F20000 		movt	r0, #:upper16:UART001_Handle0
 1316 009e 4FF01001 		mov	r1, #16
 1317 00a2 FFF7FEFF 		bl	UART001_ClearFlag
 303:../BluetoothDriver.c **** 
 304:../BluetoothDriver.c **** 		while(!USIC_ubIsRxFIFOempty(UART001_0_USIC_CH))
 1318              		.loc 1 304 0
 1319 00a6 0DE0     		b	.L42
 1320              	.L43:
 305:../BluetoothDriver.c **** 		{
 306:../BluetoothDriver.c **** 			USIC_FlushRxFIFO(UART001_0_USIC_CH);
 1321              		.loc 1 306 0
 1322 00a8 4FF00003 		mov	r3, #0
 1323 00ac C4F60203 		movt	r3, 18434
 1324 00b0 4FF00002 		mov	r2, #0
 1325 00b4 C4F60202 		movt	r2, 18434
 1326 00b8 D2F81821 		ldr	r2, [r2, #280]
 1327 00bc 42F48042 		orr	r2, r2, #16384
 1328 00c0 C3F81821 		str	r2, [r3, #280]
 1329              	.L42:
 304:../BluetoothDriver.c **** 		while(!USIC_ubIsRxFIFOempty(UART001_0_USIC_CH))
 1330              		.loc 1 304 0 discriminator 1
 1331 00c4 4FF00003 		mov	r3, #0
 1332 00c8 C4F60203 		movt	r3, 18434
 1333 00cc D3F81431 		ldr	r3, [r3, #276]
 1334 00d0 03F00803 		and	r3, r3, #8
 1335 00d4 4FEAD303 		lsr	r3, r3, #3
 1336 00d8 002B     		cmp	r3, #0
 1337 00da E5D0     		beq	.L43
 1338              	.L40:
 307:../BluetoothDriver.c **** 		}
 308:../BluetoothDriver.c **** 	}
 309:../BluetoothDriver.c **** 
 310:../BluetoothDriver.c **** 	stopAskingAboutSending();
 1339              		.loc 1 310 0
 1340 00dc FFF7FEFF 		bl	stopAskingAboutSending
 311:../BluetoothDriver.c **** 
 312:../BluetoothDriver.c **** 	return readBuffer;
 1341              		.loc 1 312 0
 1342 00e0 FB68     		ldr	r3, [r7, #12]
 313:../BluetoothDriver.c **** }
 1343              		.loc 1 313 0
 1344 00e2 1846     		mov	r0, r3
 1345 00e4 07F11007 		add	r7, r7, #16
 1346 00e8 BD46     		mov	sp, r7
 1347 00ea 80BD     		pop	{r7, pc}
 1348              		.cfi_endproc
 1349              	.LFE128:
 1351              		.section	.text.askAboutSending,"ax",%progbits
 1352              		.align	2
 1353              		.global	askAboutSending
 1354              		.thumb
 1355              		.thumb_func
 1357              	askAboutSending:
 1358              	.LFB129:
 314:../BluetoothDriver.c **** 
 315:../BluetoothDriver.c **** //UART Hardware Flow Control Functions
 316:../BluetoothDriver.c **** void askAboutSending(void)
 317:../BluetoothDriver.c **** {
 1359              		.loc 1 317 0
 1360              		.cfi_startproc
 1361              		@ args = 0, pretend = 0, frame = 0
 1362              		@ frame_needed = 1, uses_anonymous_args = 0
 1363              		@ link register save eliminated.
 1364 0000 80B4     		push	{r7}
 1365              	.LCFI41:
 1366              		.cfi_def_cfa_offset 4
 1367              		.cfi_offset 7, -4
 1368 0002 00AF     		add	r7, sp, #0
 1369              	.LCFI42:
 1370              		.cfi_def_cfa_register 7
 318:../BluetoothDriver.c **** 	IO004_SetOutputValue(IO004_Handle0, START_ASKING);
 1371              		.loc 1 318 0
 1372 0004 40F20003 		movw	r3, #:lower16:IO004_Handle0
 1373 0008 C0F20003 		movt	r3, #:upper16:IO004_Handle0
 1374 000c 5A68     		ldr	r2, [r3, #4]
 1375 000e 40F20003 		movw	r3, #:lower16:IO004_Handle0
 1376 0012 C0F20003 		movt	r3, #:upper16:IO004_Handle0
 1377 0016 5B78     		ldrb	r3, [r3, #1]	@ zero_extendqisi2
 1378 0018 4FF48031 		mov	r1, #65536
 1379 001c 01FA03F3 		lsl	r3, r1, r3
 1380 0020 5360     		str	r3, [r2, #4]
 319:../BluetoothDriver.c **** }
 1381              		.loc 1 319 0
 1382 0022 BD46     		mov	sp, r7
 1383 0024 80BC     		pop	{r7}
 1384 0026 7047     		bx	lr
 1385              		.cfi_endproc
 1386              	.LFE129:
 1388              		.section	.text.stopAskingAboutSending,"ax",%progbits
 1389              		.align	2
 1390              		.global	stopAskingAboutSending
 1391              		.thumb
 1392              		.thumb_func
 1394              	stopAskingAboutSending:
 1395              	.LFB130:
 320:../BluetoothDriver.c **** 
 321:../BluetoothDriver.c **** void stopAskingAboutSending(void)
 322:../BluetoothDriver.c **** {
 1396              		.loc 1 322 0
 1397              		.cfi_startproc
 1398              		@ args = 0, pretend = 0, frame = 0
 1399              		@ frame_needed = 1, uses_anonymous_args = 0
 1400              		@ link register save eliminated.
 1401 0000 80B4     		push	{r7}
 1402              	.LCFI43:
 1403              		.cfi_def_cfa_offset 4
 1404              		.cfi_offset 7, -4
 1405 0002 00AF     		add	r7, sp, #0
 1406              	.LCFI44:
 1407              		.cfi_def_cfa_register 7
 323:../BluetoothDriver.c **** 	IO004_SetOutputValue(IO004_Handle0, STOP_ASKING);
 1408              		.loc 1 323 0
 1409 0004 40F20003 		movw	r3, #:lower16:IO004_Handle0
 1410 0008 C0F20003 		movt	r3, #:upper16:IO004_Handle0
 1411 000c 5A68     		ldr	r2, [r3, #4]
 1412 000e 40F20003 		movw	r3, #:lower16:IO004_Handle0
 1413 0012 C0F20003 		movt	r3, #:upper16:IO004_Handle0
 1414 0016 5B78     		ldrb	r3, [r3, #1]	@ zero_extendqisi2
 1415 0018 4FF00101 		mov	r1, #1
 1416 001c 01FA03F3 		lsl	r3, r1, r3
 1417 0020 5360     		str	r3, [r2, #4]
 324:../BluetoothDriver.c **** }
 1418              		.loc 1 324 0
 1419 0022 BD46     		mov	sp, r7
 1420 0024 80BC     		pop	{r7}
 1421 0026 7047     		bx	lr
 1422              		.cfi_endproc
 1423              	.LFE130:
 1425              		.section	.text.statusRtsFlowControl,"ax",%progbits
 1426              		.align	2
 1427              		.global	statusRtsFlowControl
 1428              		.thumb
 1429              		.thumb_func
 1431              	statusRtsFlowControl:
 1432              	.LFB131:
 325:../BluetoothDriver.c **** 
 326:../BluetoothDriver.c **** int statusRtsFlowControl(void)
 327:../BluetoothDriver.c **** {
 1433              		.loc 1 327 0
 1434              		.cfi_startproc
 1435              		@ args = 0, pretend = 0, frame = 0
 1436              		@ frame_needed = 1, uses_anonymous_args = 0
 1437              		@ link register save eliminated.
 1438 0000 80B4     		push	{r7}
 1439              	.LCFI45:
 1440              		.cfi_def_cfa_offset 4
 1441              		.cfi_offset 7, -4
 1442 0002 00AF     		add	r7, sp, #0
 1443              	.LCFI46:
 1444              		.cfi_def_cfa_register 7
 328:../BluetoothDriver.c **** 	return IO004_ReadPin(IO004_Handle0);
 1445              		.loc 1 328 0
 1446 0004 40F20003 		movw	r3, #:lower16:IO004_Handle0
 1447 0008 C0F20003 		movt	r3, #:upper16:IO004_Handle0
 1448 000c 5B68     		ldr	r3, [r3, #4]
 1449 000e 5A6A     		ldr	r2, [r3, #36]
 1450 0010 40F20003 		movw	r3, #:lower16:IO004_Handle0
 1451 0014 C0F20003 		movt	r3, #:upper16:IO004_Handle0
 1452 0018 5B78     		ldrb	r3, [r3, #1]	@ zero_extendqisi2
 1453 001a 22FA03F3 		lsr	r3, r2, r3
 1454 001e 03F00103 		and	r3, r3, #1
 329:../BluetoothDriver.c **** }
 1455              		.loc 1 329 0
 1456 0022 1846     		mov	r0, r3
 1457 0024 BD46     		mov	sp, r7
 1458 0026 80BC     		pop	{r7}
 1459 0028 7047     		bx	lr
 1460              		.cfi_endproc
 1461              	.LFE131:
 1463 002a 00BF     		.section	.text.checkStatusCts,"ax",%progbits
 1464              		.align	2
 1465              		.global	checkStatusCts
 1466              		.thumb
 1467              		.thumb_func
 1469              	checkStatusCts:
 1470              	.LFB132:
 330:../BluetoothDriver.c **** 
 331:../BluetoothDriver.c **** int checkStatusCts(void)
 332:../BluetoothDriver.c **** {
 1471              		.loc 1 332 0
 1472              		.cfi_startproc
 1473              		@ args = 0, pretend = 0, frame = 0
 1474              		@ frame_needed = 1, uses_anonymous_args = 0
 1475              		@ link register save eliminated.
 1476 0000 80B4     		push	{r7}
 1477              	.LCFI47:
 1478              		.cfi_def_cfa_offset 4
 1479              		.cfi_offset 7, -4
 1480 0002 00AF     		add	r7, sp, #0
 1481              	.LCFI48:
 1482              		.cfi_def_cfa_register 7
 333:../BluetoothDriver.c **** 	return IO004_ReadPin(IO004_Handle1);
 1483              		.loc 1 333 0
 1484 0004 40F20003 		movw	r3, #:lower16:IO004_Handle1
 1485 0008 C0F20003 		movt	r3, #:upper16:IO004_Handle1
 1486 000c 5B68     		ldr	r3, [r3, #4]
 1487 000e 5A6A     		ldr	r2, [r3, #36]
 1488 0010 40F20003 		movw	r3, #:lower16:IO004_Handle1
 1489 0014 C0F20003 		movt	r3, #:upper16:IO004_Handle1
 1490 0018 5B78     		ldrb	r3, [r3, #1]	@ zero_extendqisi2
 1491 001a 22FA03F3 		lsr	r3, r2, r3
 1492 001e 03F00103 		and	r3, r3, #1
 334:../BluetoothDriver.c **** }
 1493              		.loc 1 334 0
 1494 0022 1846     		mov	r0, r3
 1495 0024 BD46     		mov	sp, r7
 1496 0026 80BC     		pop	{r7}
 1497 0028 7047     		bx	lr
 1498              		.cfi_endproc
 1499              	.LFE132:
 1501 002a 00BF     		.section	.text.checkFunction,"ax",%progbits
 1502              		.align	2
 1503              		.global	checkFunction
 1504              		.thumb
 1505              		.thumb_func
 1507              	checkFunction:
 1508              	.LFB133:
 335:../BluetoothDriver.c **** //UART Hardware Flow Control Functions
 336:../BluetoothDriver.c **** 
 337:../BluetoothDriver.c **** int checkFunction(unsigned char *answer, unsigned char *readBuffer)
 338:../BluetoothDriver.c **** {
 1509              		.loc 1 338 0
 1510              		.cfi_startproc
 1511              		@ args = 0, pretend = 0, frame = 8
 1512              		@ frame_needed = 1, uses_anonymous_args = 0
 1513 0000 80B5     		push	{r7, lr}
 1514              	.LCFI49:
 1515              		.cfi_def_cfa_offset 8
 1516              		.cfi_offset 7, -8
 1517              		.cfi_offset 14, -4
 1518 0002 82B0     		sub	sp, sp, #8
 1519              	.LCFI50:
 1520              		.cfi_def_cfa_offset 16
 1521 0004 00AF     		add	r7, sp, #0
 1522              	.LCFI51:
 1523              		.cfi_def_cfa_register 7
 1524 0006 7860     		str	r0, [r7, #4]
 1525 0008 3960     		str	r1, [r7, #0]
 339:../BluetoothDriver.c **** 	if(strcmp((char*)answer, (char*)readBuffer) == 0)
 1526              		.loc 1 339 0
 1527 000a 7868     		ldr	r0, [r7, #4]
 1528 000c 3968     		ldr	r1, [r7, #0]
 1529 000e FFF7FEFF 		bl	strcmp
 1530 0012 0346     		mov	r3, r0
 1531 0014 002B     		cmp	r3, #0
 1532 0016 02D1     		bne	.L52
 340:../BluetoothDriver.c **** 	{
 341:../BluetoothDriver.c **** 		return 1;
 1533              		.loc 1 341 0
 1534 0018 4FF00103 		mov	r3, #1
 1535 001c 01E0     		b	.L53
 1536              	.L52:
 342:../BluetoothDriver.c **** 	}
 343:../BluetoothDriver.c **** 	return 0;
 1537              		.loc 1 343 0
 1538 001e 4FF00003 		mov	r3, #0
 1539              	.L53:
 344:../BluetoothDriver.c **** }
 1540              		.loc 1 344 0
 1541 0022 1846     		mov	r0, r3
 1542 0024 07F10807 		add	r7, r7, #8
 1543 0028 BD46     		mov	sp, r7
 1544 002a 80BD     		pop	{r7, pc}
 1545              		.cfi_endproc
 1546              	.LFE133:
 1548              		.section	.text.connectStatus,"ax",%progbits
 1549              		.align	2
 1550              		.global	connectStatus
 1551              		.thumb
 1552              		.thumb_func
 1554              	connectStatus:
 1555              	.LFB134:
 345:../BluetoothDriver.c **** 
 346:../BluetoothDriver.c **** int connectStatus(void)
 347:../BluetoothDriver.c **** {
 1556              		.loc 1 347 0
 1557              		.cfi_startproc
 1558              		@ args = 0, pretend = 0, frame = 0
 1559              		@ frame_needed = 1, uses_anonymous_args = 0
 1560              		@ link register save eliminated.
 1561 0000 80B4     		push	{r7}
 1562              	.LCFI52:
 1563              		.cfi_def_cfa_offset 4
 1564              		.cfi_offset 7, -4
 1565 0002 00AF     		add	r7, sp, #0
 1566              	.LCFI53:
 1567              		.cfi_def_cfa_register 7
 348:../BluetoothDriver.c **** 	return IO004_ReadPin(IO004_Handle2);
 1568              		.loc 1 348 0
 1569 0004 40F20003 		movw	r3, #:lower16:IO004_Handle2
 1570 0008 C0F20003 		movt	r3, #:upper16:IO004_Handle2
 1571 000c 5B68     		ldr	r3, [r3, #4]
 1572 000e 5A6A     		ldr	r2, [r3, #36]
 1573 0010 40F20003 		movw	r3, #:lower16:IO004_Handle2
 1574 0014 C0F20003 		movt	r3, #:upper16:IO004_Handle2
 1575 0018 5B78     		ldrb	r3, [r3, #1]	@ zero_extendqisi2
 1576 001a 22FA03F3 		lsr	r3, r2, r3
 1577 001e 03F00103 		and	r3, r3, #1
 349:../BluetoothDriver.c **** }
 1578              		.loc 1 349 0
 1579 0022 1846     		mov	r0, r3
 1580 0024 BD46     		mov	sp, r7
 1581 0026 80BC     		pop	{r7}
 1582 0028 7047     		bx	lr
 1583              		.cfi_endproc
 1584              	.LFE134:
 1586 002a 00BF     		.section	.text.initFlowControl,"ax",%progbits
 1587              		.align	2
 1588              		.global	initFlowControl
 1589              		.thumb
 1590              		.thumb_func
 1592              	initFlowControl:
 1593              	.LFB135:
 350:../BluetoothDriver.c **** 
 351:../BluetoothDriver.c **** void initFlowControl(void)
 352:../BluetoothDriver.c **** {
 1594              		.loc 1 352 0
 1595              		.cfi_startproc
 1596              		@ args = 0, pretend = 0, frame = 0
 1597              		@ frame_needed = 1, uses_anonymous_args = 0
 1598 0000 80B5     		push	{r7, lr}
 1599              	.LCFI54:
 1600              		.cfi_def_cfa_offset 8
 1601              		.cfi_offset 7, -8
 1602              		.cfi_offset 14, -4
 1603 0002 00AF     		add	r7, sp, #0
 1604              	.LCFI55:
 1605              		.cfi_def_cfa_register 7
 353:../BluetoothDriver.c **** 	//stopAskingAboutSending();
 354:../BluetoothDriver.c **** 	askAboutSending();
 1606              		.loc 1 354 0
 1607 0004 FFF7FEFF 		bl	askAboutSending
 355:../BluetoothDriver.c **** }
 1608              		.loc 1 355 0
 1609 0008 80BD     		pop	{r7, pc}
 1610              		.cfi_endproc
 1611              	.LFE135:
 1613 000a 00BF     		.section	.text.delay,"ax",%progbits
 1614              		.align	2
 1615              		.global	delay
 1616              		.thumb
 1617              		.thumb_func
 1619              	delay:
 1620              	.LFB136:
 356:../BluetoothDriver.c **** 
 357:../BluetoothDriver.c **** void delay(uint32_t d)
 358:../BluetoothDriver.c **** {
 1621              		.loc 1 358 0
 1622              		.cfi_startproc
 1623              		@ args = 0, pretend = 0, frame = 16
 1624              		@ frame_needed = 1, uses_anonymous_args = 0
 1625              		@ link register save eliminated.
 1626 0000 80B4     		push	{r7}
 1627              	.LCFI56:
 1628              		.cfi_def_cfa_offset 4
 1629              		.cfi_offset 7, -4
 1630 0002 85B0     		sub	sp, sp, #20
 1631              	.LCFI57:
 1632              		.cfi_def_cfa_offset 24
 1633 0004 00AF     		add	r7, sp, #0
 1634              	.LCFI58:
 1635              		.cfi_def_cfa_register 7
 1636 0006 7860     		str	r0, [r7, #4]
 1637              	.LBB5:
 359:../BluetoothDriver.c **** 	for(uint32_t i = 0; i < d; i++)
 1638              		.loc 1 359 0
 1639 0008 4FF00003 		mov	r3, #0
 1640 000c FB60     		str	r3, [r7, #12]
 1641 000e 03E0     		b	.L58
 1642              	.L59:
 1643              		.loc 1 359 0 is_stmt 0 discriminator 2
 1644 0010 FB68     		ldr	r3, [r7, #12]
 1645 0012 03F10103 		add	r3, r3, #1
 1646 0016 FB60     		str	r3, [r7, #12]
 1647              	.L58:
 1648              		.loc 1 359 0 discriminator 1
 1649 0018 FA68     		ldr	r2, [r7, #12]
 1650 001a 7B68     		ldr	r3, [r7, #4]
 1651 001c 9A42     		cmp	r2, r3
 1652 001e F7D3     		bcc	.L59
 1653              	.LBE5:
 360:../BluetoothDriver.c **** 	{
 361:../BluetoothDriver.c **** 		;
 362:../BluetoothDriver.c **** 	}
 363:../BluetoothDriver.c **** }
 1654              		.loc 1 363 0 is_stmt 1
 1655 0020 07F11407 		add	r7, r7, #20
 1656 0024 BD46     		mov	sp, r7
 1657 0026 80BC     		pop	{r7}
 1658 0028 7047     		bx	lr
 1659              		.cfi_endproc
 1660              	.LFE136:
 1662 002a 00BF     		.bss
 1663              		.align	2
 1664              	criticValue.7842:
 1665 0018 00000000 		.space	4
 1666              	whichCommand.7820:
 1667 001c 00       		.space	1
 1668 001d 000000   		.text
 1669              	.Letext0:
 1670              		.file 2 "c:\\dave-3.1.10\\arm-gcc\\bin\\../lib/gcc/arm-none-eabi/4.7.4/../../../../arm-none-eabi/i
 1671              		.file 3 "C:\\DAVE-3.1.10\\eclipse\\/../CMSIS/Infineon/XMC4500_series/Include/XMC4500.h"
 1672              		.file 4 "C:\\DAVE3_workspace\\mojWorkspace\\BachelorBluetooth\\Dave\\Generated\\inc\\DAVESupport/.
 1673              		.file 5 "C:\\DAVE3_workspace\\mojWorkspace\\BachelorBluetooth\\Dave\\Generated\\inc\\DAVESupport/.
 1674              		.file 6 "C:\\DAVE3_workspace\\mojWorkspace\\BachelorBluetooth\\Dave\\Generated\\inc\\DAVESupport/.
 1675              		.file 7 "C:\\DAVE3_workspace\\mojWorkspace\\BachelorBluetooth\\Dave\\Generated\\inc\\DAVESupport/.
 1676              		.file 8 "C:\\DAVE3_workspace\\mojWorkspace\\BachelorBluetooth\\Dave\\Generated\\inc\\DAVESupport/.
 1677              		.file 9 "../BluetoothDriver.h"
 1678              		.file 10 "C:\\DAVE-3.1.10\\eclipse\\/../CMSIS/Include/core_cm4.h"
 1679              		.file 11 "C:\\DAVE3_workspace\\mojWorkspace\\BachelorBluetooth\\Dave\\Generated\\inc\\DAVESupport/
 1680              		.file 12 "C:\\DAVE3_workspace\\mojWorkspace\\BachelorBluetooth\\Dave\\Generated\\inc\\DAVESupport/